	.file	"string.cpp"
	.intel_syntax noprefix
	.text
.Ltext0:
	.file 0 "/home/dever/OSdevelop/workspace" "/home/dever/OSdevelop/workspace/lib/string.cpp"
	.section	.text.pop,"axG",@progbits,pop,comdat
	.weak	pop
	.type	pop, @function
pop:
.LFB0:
	.file 1 "/home/dever/OSdevelop/workspace/include/lib/stack.h"
	.loc 1 13 1
	.cfi_startproc
	push	ebp
	.cfi_def_cfa_offset 8
	.cfi_offset 5, -8
	mov	ebp, esp
	.cfi_def_cfa_register 5
	.loc 1 14 17
	mov	eax, DWORD PTR [ebp+8]
	mov	eax, DWORD PTR [eax]
	.loc 1 14 14
	lea	edx, [eax-1]
	.loc 1 14 22
	mov	eax, DWORD PTR [ebp+8]
	mov	DWORD PTR [eax], edx
	.loc 1 14 17
	mov	eax, DWORD PTR [ebp+8]
	mov	eax, DWORD PTR [eax]
	.loc 1 14 22
	movzx	eax, BYTE PTR [eax]
	.loc 1 15 1
	pop	ebp
	.cfi_restore 5
	.cfi_def_cfa 4, 4
	ret
	.cfi_endproc
.LFE0:
	.size	pop, .-pop
	.section	.text.push,"axG",@progbits,push,comdat
	.weak	push
	.type	push, @function
push:
.LFB1:
	.loc 1 18 1
	.cfi_startproc
	push	ebp
	.cfi_def_cfa_offset 8
	.cfi_offset 5, -8
	mov	ebp, esp
	.cfi_def_cfa_register 5
	push	ebx
	sub	esp, 4
	.cfi_offset 3, -12
	mov	eax, DWORD PTR [ebp+12]
	mov	BYTE PTR [ebp-8], al
	.loc 1 19 17
	movzx	edx, BYTE PTR [ebp-8]
	.loc 1 19 8
	mov	eax, DWORD PTR [ebp+8]
	mov	eax, DWORD PTR [eax]
	.loc 1 19 13
	lea	ebx, [eax+1]
	mov	ecx, DWORD PTR [ebp+8]
	mov	DWORD PTR [ecx], ebx
	.loc 1 19 17
	mov	BYTE PTR [eax], dl
	.loc 1 20 1
	nop
	mov	ebx, DWORD PTR [ebp-4]
	leave
	.cfi_restore 5
	.cfi_restore 3
	.cfi_def_cfa 4, 4
	ret
	.cfi_endproc
.LFE1:
	.size	push, .-push
	.text
	.globl	strcpy
	.type	strcpy, @function
strcpy:
.LFB16:
	.file 2 "/home/dever/OSdevelop/workspace/lib/string.cpp"
	.loc 2 7 1
	.cfi_startproc
	push	ebp
	.cfi_def_cfa_offset 8
	.cfi_offset 5, -8
	mov	ebp, esp
	.cfi_def_cfa_register 5
	sub	esp, 16
	.loc 2 8 12
	mov	DWORD PTR [ebp-4], 0
	.loc 2 9 5
	jmp	.L5
.L6:
	.loc 2 10 28
	mov	edx, DWORD PTR [ebp+12]
	mov	eax, DWORD PTR [ebp-4]
	add	eax, edx
	.loc 2 10 17
	mov	ecx, DWORD PTR [ebp+8]
	mov	edx, DWORD PTR [ebp-4]
	add	edx, ecx
	.loc 2 10 28
	movzx	eax, BYTE PTR [eax]
	.loc 2 10 19
	mov	BYTE PTR [edx], al
	.loc 2 11 12
	add	DWORD PTR [ebp-4], 1
.L5:
	.loc 2 9 19
	mov	edx, DWORD PTR [ebp+12]
	mov	eax, DWORD PTR [ebp-4]
	add	eax, edx
	movzx	eax, BYTE PTR [eax]
	.loc 2 9 21
	test	al, al
	jne	.L6
	.loc 2 13 12
	mov	eax, DWORD PTR [ebp+8]
	.loc 2 14 1
	leave
	.cfi_restore 5
	.cfi_def_cfa 4, 4
	ret
	.cfi_endproc
.LFE16:
	.size	strcpy, .-strcpy
	.globl	strncpy
	.type	strncpy, @function
strncpy:
.LFB17:
	.loc 2 16 1
	.cfi_startproc
	push	ebp
	.cfi_def_cfa_offset 8
	.cfi_offset 5, -8
	mov	ebp, esp
	.cfi_def_cfa_register 5
	sub	esp, 16
	.loc 2 17 12
	mov	DWORD PTR [ebp-4], 0
	.loc 2 18 12
	mov	DWORD PTR [ebp-8], 0
	.loc 2 19 5
	jmp	.L9
.L11:
	.loc 2 20 28
	mov	edx, DWORD PTR [ebp+12]
	mov	eax, DWORD PTR [ebp-4]
	add	eax, edx
	.loc 2 20 17
	mov	ecx, DWORD PTR [ebp+8]
	mov	edx, DWORD PTR [ebp-4]
	add	edx, ecx
	.loc 2 20 28
	movzx	eax, BYTE PTR [eax]
	.loc 2 20 19
	mov	BYTE PTR [edx], al
	.loc 2 21 12
	add	DWORD PTR [ebp-4], 1
	.loc 2 22 16
	add	DWORD PTR [ebp-8], 1
.L9:
	.loc 2 19 19
	mov	edx, DWORD PTR [ebp+12]
	mov	eax, DWORD PTR [ebp-4]
	add	eax, edx
	movzx	eax, BYTE PTR [eax]
	.loc 2 19 28
	test	al, al
	je	.L10
	.loc 2 19 28 is_stmt 0 discriminator 1
	mov	eax, DWORD PTR [ebp-8]
	cmp	eax, DWORD PTR [ebp+16]
	jb	.L11
.L10:
	.loc 2 24 12 is_stmt 1
	mov	eax, DWORD PTR [ebp+8]
	.loc 2 25 1
	leave
	.cfi_restore 5
	.cfi_def_cfa 4, 4
	ret
	.cfi_endproc
.LFE17:
	.size	strncpy, .-strncpy
	.globl	strcat
	.type	strcat, @function
strcat:
.LFB18:
	.loc 2 27 1
	.cfi_startproc
	push	ebp
	.cfi_def_cfa_offset 8
	.cfi_offset 5, -8
	mov	ebp, esp
	.cfi_def_cfa_register 5
	sub	esp, 24
	.loc 2 28 26
	sub	esp, 12
	push	DWORD PTR [ebp+8]
	call	strlen
	add	esp, 16
	mov	DWORD PTR [ebp-12], eax
	.loc 2 29 11
	mov	edx, DWORD PTR [ebp+8]
	mov	eax, DWORD PTR [ebp-12]
	add	eax, edx
	sub	esp, 8
	push	DWORD PTR [ebp+12]
	push	eax
	call	strcpy
	add	esp, 16
	.loc 2 30 12
	mov	eax, DWORD PTR [ebp+8]
	.loc 2 31 1
	leave
	.cfi_restore 5
	.cfi_def_cfa 4, 4
	ret
	.cfi_endproc
.LFE18:
	.size	strcat, .-strcat
	.globl	strlen
	.type	strlen, @function
strlen:
.LFB19:
	.loc 2 33 1
	.cfi_startproc
	push	ebp
	.cfi_def_cfa_offset 8
	.cfi_offset 5, -8
	mov	ebp, esp
	.cfi_def_cfa_register 5
	sub	esp, 16
	.loc 2 35 12
	mov	DWORD PTR [ebp-4], 0
	.loc 2 36 5
	jmp	.L16
.L17:
	.loc 2 37 15
	add	DWORD PTR [ebp-4], 1
.L16:
	.loc 2 36 22
	mov	edx, DWORD PTR [ebp+8]
	mov	eax, DWORD PTR [ebp-4]
	add	eax, edx
	movzx	eax, BYTE PTR [eax]
	.loc 2 36 24
	test	al, al
	jne	.L17
	.loc 2 39 12
	mov	eax, DWORD PTR [ebp-4]
	.loc 2 40 1
	leave
	.cfi_restore 5
	.cfi_def_cfa 4, 4
	ret
	.cfi_endproc
.LFE19:
	.size	strlen, .-strlen
	.globl	strcmp
	.type	strcmp, @function
strcmp:
.LFB20:
	.loc 2 42 1
	.cfi_startproc
	push	ebp
	.cfi_def_cfa_offset 8
	.cfi_offset 5, -8
	mov	ebp, esp
	.cfi_def_cfa_register 5
	sub	esp, 16
	.loc 2 43 12
	mov	DWORD PTR [ebp-4], 0
	.loc 2 44 5
	jmp	.L20
.L22:
	.loc 2 45 13
	add	DWORD PTR [ebp-4], 1
.L20:
	.loc 2 44 20
	mov	edx, DWORD PTR [ebp+8]
	mov	eax, DWORD PTR [ebp-4]
	add	eax, edx
	movzx	edx, BYTE PTR [eax]
	.loc 2 44 33
	mov	ecx, DWORD PTR [ebp+12]
	mov	eax, DWORD PTR [ebp-4]
	add	eax, ecx
	movzx	eax, BYTE PTR [eax]
	.loc 2 44 55
	cmp	dl, al
	jne	.L21
	.loc 2 44 46 discriminator 1
	mov	edx, DWORD PTR [ebp+8]
	mov	eax, DWORD PTR [ebp-4]
	add	eax, edx
	movzx	eax, BYTE PTR [eax]
	.loc 2 44 35 discriminator 1
	test	al, al
	je	.L21
	.loc 2 44 66 discriminator 2
	mov	edx, DWORD PTR [ebp+12]
	mov	eax, DWORD PTR [ebp-4]
	add	eax, edx
	movzx	eax, BYTE PTR [eax]
	.loc 2 44 55 discriminator 2
	test	al, al
	jne	.L22
.L21:
	.loc 2 50 20
	mov	edx, DWORD PTR [ebp+8]
	mov	eax, DWORD PTR [ebp-4]
	add	eax, edx
	movzx	edx, BYTE PTR [eax]
	.loc 2 50 32
	mov	ecx, DWORD PTR [ebp+12]
	mov	eax, DWORD PTR [ebp-4]
	add	eax, ecx
	movzx	eax, BYTE PTR [eax]
	.loc 2 50 34
	cmp	dl, al
	jl	.L23
	.loc 2 50 49 discriminator 1
	mov	edx, DWORD PTR [ebp+8]
	mov	eax, DWORD PTR [ebp-4]
	add	eax, edx
	movzx	edx, BYTE PTR [eax]
	.loc 2 50 61 discriminator 1
	mov	ecx, DWORD PTR [ebp+12]
	mov	eax, DWORD PTR [ebp-4]
	add	eax, ecx
	movzx	eax, BYTE PTR [eax]
	.loc 2 50 51 discriminator 1
	cmp	dl, al
	setg	al
	.loc 2 50 34 discriminator 1
	movzx	eax, al
	.loc 2 50 61 discriminator 1
	jmp	.L25
.L23:
	.loc 2 50 34 discriminator 2
	mov	eax, -1
.L25:
	.loc 2 51 1 discriminator 5
	leave
	.cfi_restore 5
	.cfi_def_cfa 4, 4
	ret
	.cfi_endproc
.LFE20:
	.size	strcmp, .-strcmp
	.globl	strchr
	.type	strchr, @function
strchr:
.LFB21:
	.loc 2 53 1
	.cfi_startproc
	push	ebp
	.cfi_def_cfa_offset 8
	.cfi_offset 5, -8
	mov	ebp, esp
	.cfi_def_cfa_register 5
	sub	esp, 16
	.loc 2 54 12
	mov	DWORD PTR [ebp-4], 0
	.loc 2 55 5
	jmp	.L27
.L29:
	.loc 2 56 21
	mov	edx, DWORD PTR [ebp+8]
	mov	eax, DWORD PTR [ebp-4]
	add	eax, edx
	movzx	eax, BYTE PTR [eax]
	movsx	eax, al
	.loc 2 56 9
	cmp	DWORD PTR [ebp+12], eax
	jne	.L27
	.loc 2 57 38
	mov	edx, DWORD PTR [ebp+8]
	mov	eax, DWORD PTR [ebp-4]
	add	eax, edx
	jmp	.L28
.L27:
	.loc 2 55 20
	mov	edx, DWORD PTR [ebp+8]
	mov	eax, DWORD PTR [ebp-4]
	add	eax, edx
	movzx	eax, BYTE PTR [eax]
	.loc 2 55 22
	test	al, al
	jne	.L29
	.loc 2 60 12
	mov	eax, 0
.L28:
	.loc 2 61 1
	leave
	.cfi_restore 5
	.cfi_def_cfa 4, 4
	ret
	.cfi_endproc
.LFE21:
	.size	strchr, .-strchr
	.globl	strrchr
	.type	strrchr, @function
strrchr:
.LFB22:
	.loc 2 63 1
	.cfi_startproc
	push	ebp
	.cfi_def_cfa_offset 8
	.cfi_offset 5, -8
	mov	ebp, esp
	.cfi_def_cfa_register 5
	sub	esp, 16
	.loc 2 64 12
	mov	DWORD PTR [ebp-4], 0
	.loc 2 65 11
	mov	DWORD PTR [ebp-8], 0
	.loc 2 66 5
	jmp	.L31
.L33:
	.loc 2 67 21
	mov	edx, DWORD PTR [ebp+8]
	mov	eax, DWORD PTR [ebp-4]
	add	eax, edx
	movzx	eax, BYTE PTR [eax]
	movsx	eax, al
	.loc 2 67 9
	cmp	DWORD PTR [ebp+12], eax
	jne	.L32
	.loc 2 68 18
	mov	edx, DWORD PTR [ebp+8]
	mov	eax, DWORD PTR [ebp-4]
	add	eax, edx
	mov	DWORD PTR [ebp-8], eax
.L32:
	.loc 2 70 13
	add	DWORD PTR [ebp-4], 1
.L31:
	.loc 2 66 20
	mov	edx, DWORD PTR [ebp+8]
	mov	eax, DWORD PTR [ebp-4]
	add	eax, edx
	movzx	eax, BYTE PTR [eax]
	.loc 2 66 22
	test	al, al
	jne	.L33
	.loc 2 72 12
	mov	eax, DWORD PTR [ebp-8]
	.loc 2 73 1
	leave
	.cfi_restore 5
	.cfi_def_cfa 4, 4
	ret
	.cfi_endproc
.LFE22:
	.size	strrchr, .-strrchr
	.globl	memcmp
	.type	memcmp, @function
memcmp:
.LFB23:
	.loc 2 76 1
	.cfi_startproc
	push	ebp
	.cfi_def_cfa_offset 8
	.cfi_offset 5, -8
	mov	ebp, esp
	.cfi_def_cfa_register 5
	sub	esp, 16
	.loc 2 77 11
	mov	eax, DWORD PTR [ebp+8]
	mov	DWORD PTR [ebp-4], eax
	.loc 2 78 11
	mov	eax, DWORD PTR [ebp+12]
	mov	DWORD PTR [ebp-8], eax
	.loc 2 79 5
	jmp	.L36
.L38:
	.loc 2 80 13
	add	DWORD PTR [ebp-4], 1
	.loc 2 81 13
	add	DWORD PTR [ebp-8], 1
	.loc 2 82 14
	sub	DWORD PTR [ebp+16], 1
.L36:
	.loc 2 79 24
	cmp	DWORD PTR [ebp+16], 0
	je	.L37
	.loc 2 79 27 discriminator 1
	mov	eax, DWORD PTR [ebp-4]
	movzx	edx, BYTE PTR [eax]
	.loc 2 79 36 discriminator 1
	mov	eax, DWORD PTR [ebp-8]
	movzx	eax, BYTE PTR [eax]
	.loc 2 79 24 discriminator 1
	cmp	dl, al
	je	.L38
.L37:
	.loc 2 84 5
	cmp	DWORD PTR [ebp+16], 0
	jne	.L39
	.loc 2 85 16
	mov	eax, 0
	jmp	.L40
.L39:
	.loc 2 86 12
	mov	eax, DWORD PTR [ebp-4]
	movzx	edx, BYTE PTR [eax]
	.loc 2 86 20
	mov	eax, DWORD PTR [ebp-8]
	movzx	eax, BYTE PTR [eax]
	.loc 2 86 26
	cmp	dl, al
	jl	.L41
	.loc 2 86 33 discriminator 1
	mov	eax, DWORD PTR [ebp-4]
	movzx	edx, BYTE PTR [eax]
	.loc 2 86 41 discriminator 1
	mov	eax, DWORD PTR [ebp-8]
	movzx	eax, BYTE PTR [eax]
	.loc 2 86 39 discriminator 1
	cmp	dl, al
	setg	al
	.loc 2 86 26 discriminator 1
	movzx	eax, al
	.loc 2 86 42 discriminator 1
	jmp	.L43
.L41:
	.loc 2 86 26 discriminator 2
	mov	eax, -1
.L43:
	.loc 2 86 42
	nop
.L40:
	.loc 2 87 1
	leave
	.cfi_restore 5
	.cfi_def_cfa 4, 4
	ret
	.cfi_endproc
.LFE23:
	.size	memcmp, .-memcmp
	.globl	memset
	.type	memset, @function
memset:
.LFB24:
	.loc 2 89 1
	.cfi_startproc
	push	ebp
	.cfi_def_cfa_offset 8
	.cfi_offset 5, -8
	mov	ebp, esp
	.cfi_def_cfa_register 5
	sub	esp, 16
.LBB2:
	.loc 2 90 14
	mov	DWORD PTR [ebp-4], 0
	.loc 2 90 5
	jmp	.L45
.L46:
	.loc 2 91 23 discriminator 3
	mov	edx, DWORD PTR [ebp-4]
	.loc 2 91 24 discriminator 3
	mov	eax, DWORD PTR [ebp+8]
	add	eax, edx
	.loc 2 91 26 discriminator 3
	mov	edx, DWORD PTR [ebp+12]
	mov	BYTE PTR [eax], dl
	.loc 2 90 5 discriminator 3
	add	DWORD PTR [ebp-4], 1
.L45:
	.loc 2 90 21 discriminator 1
	mov	eax, DWORD PTR [ebp-4]
	.loc 2 90 23 discriminator 1
	cmp	eax, DWORD PTR [ebp+16]
	jb	.L46
.LBE2:
	.loc 2 93 12
	mov	eax, DWORD PTR [ebp+8]
	.loc 2 94 1
	leave
	.cfi_restore 5
	.cfi_def_cfa 4, 4
	ret
	.cfi_endproc
.LFE24:
	.size	memset, .-memset
	.globl	memcpy
	.type	memcpy, @function
memcpy:
.LFB25:
	.loc 2 96 1
	.cfi_startproc
	push	ebp
	.cfi_def_cfa_offset 8
	.cfi_offset 5, -8
	mov	ebp, esp
	.cfi_def_cfa_register 5
	sub	esp, 16
.LBB3:
	.loc 2 97 14
	mov	DWORD PTR [ebp-4], 0
	.loc 2 97 5
	jmp	.L49
.L50:
	.loc 2 98 41 discriminator 3
	mov	edx, DWORD PTR [ebp-4]
	.loc 2 98 42 discriminator 3
	mov	eax, DWORD PTR [ebp+12]
	add	eax, edx
	.loc 2 98 23 discriminator 3
	mov	ecx, DWORD PTR [ebp-4]
	.loc 2 98 24 discriminator 3
	mov	edx, DWORD PTR [ebp+8]
	add	edx, ecx
	.loc 2 98 42 discriminator 3
	movzx	eax, BYTE PTR [eax]
	.loc 2 98 26 discriminator 3
	mov	BYTE PTR [edx], al
	.loc 2 97 5 discriminator 3
	add	DWORD PTR [ebp-4], 1
.L49:
	.loc 2 97 21 discriminator 1
	mov	eax, DWORD PTR [ebp-4]
	.loc 2 97 23 discriminator 1
	cmp	eax, DWORD PTR [ebp+16]
	jb	.L50
.LBE3:
	.loc 2 100 12
	mov	eax, DWORD PTR [ebp+8]
	.loc 2 101 1
	leave
	.cfi_restore 5
	.cfi_def_cfa 4, 4
	ret
	.cfi_endproc
.LFE25:
	.size	memcpy, .-memcpy
	.globl	memchr
	.type	memchr, @function
memchr:
.LFB26:
	.loc 2 103 1
	.cfi_startproc
	push	ebp
	.cfi_def_cfa_offset 8
	.cfi_offset 5, -8
	mov	ebp, esp
	.cfi_def_cfa_register 5
	sub	esp, 16
.LBB4:
	.loc 2 104 14
	mov	DWORD PTR [ebp-4], 0
	.loc 2 104 5
	jmp	.L53
.L56:
	.loc 2 105 26
	mov	edx, DWORD PTR [ebp-4]
	.loc 2 105 27
	mov	eax, DWORD PTR [ebp+8]
	add	eax, edx
	movzx	eax, BYTE PTR [eax]
	movsx	eax, al
	.loc 2 105 9
	cmp	DWORD PTR [ebp+12], eax
	jne	.L54
	.loc 2 106 33
	mov	edx, DWORD PTR [ebp-4]
	mov	eax, DWORD PTR [ebp+8]
	add	eax, edx
	jmp	.L55
.L54:
	.loc 2 104 5 discriminator 2
	add	DWORD PTR [ebp-4], 1
.L53:
	.loc 2 104 21 discriminator 1
	mov	eax, DWORD PTR [ebp-4]
	.loc 2 104 23 discriminator 1
	cmp	eax, DWORD PTR [ebp+16]
	jb	.L56
.LBE4:
	.loc 2 109 12
	mov	eax, 0
.L55:
	.loc 2 110 1
	leave
	.cfi_restore 5
	.cfi_def_cfa 4, 4
	ret
	.cfi_endproc
.LFE26:
	.size	memchr, .-memchr
	.globl	strsep
	.type	strsep, @function
strsep:
.LFB27:
	.loc 2 118 1
	.cfi_startproc
	push	ebp
	.cfi_def_cfa_offset 8
	.cfi_offset 5, -8
	mov	ebp, esp
	.cfi_def_cfa_register 5
	sub	esp, 16
	.loc 2 119 11
	mov	eax, DWORD PTR [ebp+8]
	mov	DWORD PTR [ebp-4], eax
.L62:
	.loc 2 121 13
	mov	eax, DWORD PTR [ebp-4]
	movzx	eax, BYTE PTR [eax]
	.loc 2 121 9
	cmp	al, 47
	je	.L58
	.loc 2 121 13 discriminator 1
	mov	eax, DWORD PTR [ebp-4]
	movzx	eax, BYTE PTR [eax]
	cmp	al, 92
	jne	.L59
.L58:
	.loc 2 122 20
	mov	eax, DWORD PTR [ebp-4]
	jmp	.L60
.L59:
	.loc 2 124 17
	mov	eax, DWORD PTR [ebp-4]
	lea	edx, [eax+1]
	mov	DWORD PTR [ebp-4], edx
	.loc 2 124 13
	movzx	eax, BYTE PTR [eax]
	.loc 2 124 20
	test	al, al
	sete	al
	.loc 2 124 9
	test	al, al
	je	.L62
	.loc 2 125 20
	mov	eax, 0
.L60:
	.loc 2 128 1
	leave
	.cfi_restore 5
	.cfi_def_cfa 4, 4
	ret
	.cfi_endproc
.LFE27:
	.size	strsep, .-strsep
	.globl	strrsep
	.type	strrsep, @function
strrsep:
.LFB28:
	.loc 2 132 1
	.cfi_startproc
	push	ebp
	.cfi_def_cfa_offset 8
	.cfi_offset 5, -8
	mov	ebp, esp
	.cfi_def_cfa_register 5
	sub	esp, 16
	.loc 2 133 11
	mov	DWORD PTR [ebp-4], 0
	.loc 2 134 11
	mov	eax, DWORD PTR [ebp+8]
	mov	DWORD PTR [ebp-8], eax
.L68:
	.loc 2 136 13
	mov	eax, DWORD PTR [ebp-8]
	movzx	eax, BYTE PTR [eax]
	.loc 2 136 9
	cmp	al, 47
	je	.L64
	.loc 2 136 13 discriminator 1
	mov	eax, DWORD PTR [ebp-8]
	movzx	eax, BYTE PTR [eax]
	cmp	al, 92
	jne	.L65
.L64:
	.loc 2 137 18
	mov	eax, DWORD PTR [ebp-8]
	mov	DWORD PTR [ebp-4], eax
.L65:
	.loc 2 139 17
	mov	eax, DWORD PTR [ebp-8]
	lea	edx, [eax+1]
	mov	DWORD PTR [ebp-8], edx
	.loc 2 139 13
	movzx	eax, BYTE PTR [eax]
	.loc 2 139 20
	test	al, al
	sete	al
	.loc 2 139 9
	test	al, al
	je	.L68
	.loc 2 140 20
	mov	eax, DWORD PTR [ebp-4]
	.loc 2 143 1
	leave
	.cfi_restore 5
	.cfi_def_cfa 4, 4
	ret
	.cfi_endproc
.LFE28:
	.size	strrsep, .-strrsep
	.section	.rodata
	.align 4
.LC0:
	.string	"char* _ltoa(long int, char*, int)"
	.align 4
.LC1:
	.string	"/home/dever/OSdevelop/workspace/lib/string.cpp"
.LC2:
	.string	"radix unknown!"
.LC3:
	.string	"ERROR"
	.text
	.globl	_ltoa
	.type	_ltoa, @function
_ltoa:
.LFB29:
	.loc 2 147 1
	.cfi_startproc
	push	ebp
	.cfi_def_cfa_offset 8
	.cfi_offset 5, -8
	mov	ebp, esp
	.cfi_def_cfa_register 5
	push	ebx
	sub	esp, 84
	.cfi_offset 3, -12
	.loc 2 148 5
	cmp	DWORD PTR [ebp+16], 0
	jle	.L71
	.loc 2 148 9 discriminator 1
	cmp	DWORD PTR [ebp+16], 16
	jle	.L72
.L71:
	.loc 2 149 9
	sub	esp, 8
	push	149
	push	OFFSET FLAT:.LC0
	push	OFFSET FLAT:.LC1
	push	OFFSET FLAT:.LC1
	push	OFFSET FLAT:.LC2
	push	OFFSET FLAT:.LC3
	call	_normal_log
	add	esp, 32
	.loc 2 150 16
	mov	eax, DWORD PTR [ebp+12]
	jmp	.L78
.L72:
	.loc 2 152 10
	mov	DWORD PTR [ebp-37], 0
	mov	DWORD PTR [ebp-33], 0
	mov	DWORD PTR [ebp-29], 0
	mov	DWORD PTR [ebp-25], 0
	mov	DWORD PTR [ebp-21], 0
	mov	BYTE PTR [ebp-17], 0
	.loc 2 153 11
	lea	eax, [ebp-37]
	mov	DWORD PTR [ebp-44], eax
	.loc 2 154 10
	mov	DWORD PTR [ebp-81], 858927408
	mov	DWORD PTR [ebp-77], 926299444
	mov	DWORD PTR [ebp-73], 1111570744
	mov	DWORD PTR [ebp-69], 1178944579
	mov	DWORD PTR [ebp-65], 1246316615
	mov	DWORD PTR [ebp-61], 1313688651
	mov	DWORD PTR [ebp-57], 1381060687
	mov	DWORD PTR [ebp-53], 1448432723
	mov	DWORD PTR [ebp-49], 1515804759
	mov	BYTE PTR [ebp-45], 0
	.loc 2 155 10
	mov	eax, DWORD PTR [ebp+8]
	mov	DWORD PTR [ebp-12], eax
	.loc 2 156 18
	mov	DWORD PTR [ebp-16], 0
	.loc 2 157 5
	cmp	DWORD PTR [ebp+16], 10
	jne	.L75
	.loc 2 157 21 discriminator 1
	cmp	DWORD PTR [ebp+8], 0
	jns	.L75
	.loc 2 158 17
	mov	eax, DWORD PTR [ebp+8]
	neg	eax
	mov	DWORD PTR [ebp-12], eax
	.loc 2 159 9
	mov	ecx, DWORD PTR [ebp+12]
	.loc 2 159 19
	mov	eax, DWORD PTR [ebp-16]
	lea	edx, [eax+1]
	mov	DWORD PTR [ebp-16], edx
	.loc 2 159 21
	add	eax, ecx
	.loc 2 159 23
	mov	BYTE PTR [eax], 45
.L75:
	.loc 2 162 38 discriminator 1
	mov	eax, DWORD PTR [ebp-12]
	cdq
	idiv	DWORD PTR [ebp+16]
	mov	eax, edx
	.loc 2 162 45 discriminator 1
	movzx	eax, BYTE PTR [ebp-81+eax]
	.loc 2 162 13 discriminator 1
	movsx	eax, al
	sub	esp, 8
	push	eax
	lea	eax, [ebp-44]
	push	eax
	call	push
	add	esp, 16
	.loc 2 163 17 discriminator 1
	mov	eax, DWORD PTR [ebp-12]
	cdq
	idiv	DWORD PTR [ebp+16]
	mov	DWORD PTR [ebp-12], eax
	.loc 2 164 14 discriminator 1
	cmp	DWORD PTR [ebp-12], 0
	jne	.L75
	.loc 2 165 5
	jmp	.L76
.L77:
	.loc 2 166 28
	sub	esp, 12
	lea	eax, [ebp-44]
	push	eax
	call	pop
	add	esp, 16
	mov	edx, eax
	.loc 2 166 9
	mov	ebx, DWORD PTR [ebp+12]
	.loc 2 166 19
	mov	eax, DWORD PTR [ebp-16]
	lea	ecx, [eax+1]
	mov	DWORD PTR [ebp-16], ecx
	.loc 2 166 21
	add	eax, ebx
	.loc 2 166 23
	mov	BYTE PTR [eax], dl
.L76:
	.loc 2 165 16
	mov	edx, DWORD PTR [ebp-44]
	lea	eax, [ebp-37]
	cmp	edx, eax
	jne	.L77
	.loc 2 168 15
	mov	edx, DWORD PTR [ebp+12]
	mov	eax, DWORD PTR [ebp-16]
	add	eax, edx
	.loc 2 168 17
	mov	BYTE PTR [eax], 0
	.loc 2 169 12
	mov	eax, DWORD PTR [ebp+12]
.L78:
	.loc 2 170 1 discriminator 1
	mov	ebx, DWORD PTR [ebp-4]
	leave
	.cfi_restore 5
	.cfi_restore 3
	.cfi_def_cfa 4, 4
	ret
	.cfi_endproc
.LFE29:
	.size	_ltoa, .-_ltoa
	.section	.rodata
	.align 4
.LC4:
	.string	"char* _ultoa(long int, char*, int)"
	.text
	.globl	_ultoa
	.type	_ultoa, @function
_ultoa:
.LFB30:
	.loc 2 173 1
	.cfi_startproc
	push	ebp
	.cfi_def_cfa_offset 8
	.cfi_offset 5, -8
	mov	ebp, esp
	.cfi_def_cfa_register 5
	push	ebx
	sub	esp, 84
	.cfi_offset 3, -12
	.loc 2 174 5
	cmp	DWORD PTR [ebp+16], 0
	jle	.L80
	.loc 2 174 9 discriminator 1
	cmp	DWORD PTR [ebp+16], 16
	jle	.L81
.L80:
	.loc 2 175 9
	sub	esp, 8
	push	175
	push	OFFSET FLAT:.LC4
	push	OFFSET FLAT:.LC1
	push	OFFSET FLAT:.LC1
	push	OFFSET FLAT:.LC2
	push	OFFSET FLAT:.LC3
	call	_normal_log
	add	esp, 32
	.loc 2 176 16
	mov	eax, DWORD PTR [ebp+12]
	jmp	.L87
.L81:
	.loc 2 178 10
	mov	DWORD PTR [ebp-37], 0
	mov	DWORD PTR [ebp-33], 0
	mov	DWORD PTR [ebp-29], 0
	mov	DWORD PTR [ebp-25], 0
	mov	DWORD PTR [ebp-21], 0
	mov	BYTE PTR [ebp-17], 0
	.loc 2 179 11
	lea	eax, [ebp-37]
	mov	DWORD PTR [ebp-44], eax
	.loc 2 180 10
	mov	DWORD PTR [ebp-81], 858927408
	mov	DWORD PTR [ebp-77], 926299444
	mov	DWORD PTR [ebp-73], 1111570744
	mov	DWORD PTR [ebp-69], 1178944579
	mov	DWORD PTR [ebp-65], 1246316615
	mov	DWORD PTR [ebp-61], 1313688651
	mov	DWORD PTR [ebp-57], 1381060687
	mov	DWORD PTR [ebp-53], 1448432723
	mov	DWORD PTR [ebp-49], 1515804759
	mov	BYTE PTR [ebp-45], 0
	.loc 2 181 10
	mov	eax, DWORD PTR [ebp+8]
	mov	DWORD PTR [ebp-12], eax
	.loc 2 182 18
	mov	DWORD PTR [ebp-16], 0
	.loc 2 183 5
	cmp	DWORD PTR [ebp+16], 10
	jne	.L84
	.loc 2 183 21 discriminator 1
	cmp	DWORD PTR [ebp+8], 0
	jns	.L84
	.loc 2 184 17
	mov	eax, DWORD PTR [ebp+8]
	neg	eax
	mov	DWORD PTR [ebp-12], eax
	.loc 2 185 9
	mov	ecx, DWORD PTR [ebp+12]
	.loc 2 185 19
	mov	eax, DWORD PTR [ebp-16]
	lea	edx, [eax+1]
	mov	DWORD PTR [ebp-16], edx
	.loc 2 185 21
	add	eax, ecx
	.loc 2 185 23
	mov	BYTE PTR [eax], 45
.L84:
	.loc 2 188 38 discriminator 1
	mov	eax, DWORD PTR [ebp-12]
	cdq
	idiv	DWORD PTR [ebp+16]
	mov	eax, edx
	.loc 2 188 45 discriminator 1
	movzx	eax, BYTE PTR [ebp-81+eax]
	.loc 2 188 13 discriminator 1
	movsx	eax, al
	sub	esp, 8
	push	eax
	lea	eax, [ebp-44]
	push	eax
	call	push
	add	esp, 16
	.loc 2 189 17 discriminator 1
	mov	eax, DWORD PTR [ebp-12]
	cdq
	idiv	DWORD PTR [ebp+16]
	mov	DWORD PTR [ebp-12], eax
	.loc 2 190 14 discriminator 1
	cmp	DWORD PTR [ebp-12], 0
	jne	.L84
	.loc 2 191 5
	jmp	.L85
.L86:
	.loc 2 192 28
	sub	esp, 12
	lea	eax, [ebp-44]
	push	eax
	call	pop
	add	esp, 16
	mov	edx, eax
	.loc 2 192 9
	mov	ebx, DWORD PTR [ebp+12]
	.loc 2 192 19
	mov	eax, DWORD PTR [ebp-16]
	lea	ecx, [eax+1]
	mov	DWORD PTR [ebp-16], ecx
	.loc 2 192 21
	add	eax, ebx
	.loc 2 192 23
	mov	BYTE PTR [eax], dl
.L85:
	.loc 2 191 16
	mov	edx, DWORD PTR [ebp-44]
	lea	eax, [ebp-37]
	cmp	edx, eax
	jne	.L86
	.loc 2 194 15
	mov	edx, DWORD PTR [ebp+12]
	mov	eax, DWORD PTR [ebp-16]
	add	eax, edx
	.loc 2 194 17
	mov	BYTE PTR [eax], 0
	.loc 2 195 12
	mov	eax, DWORD PTR [ebp+12]
.L87:
	.loc 2 196 1 discriminator 1
	mov	ebx, DWORD PTR [ebp-4]
	leave
	.cfi_restore 5
	.cfi_restore 3
	.cfi_def_cfa 4, 4
	ret
	.cfi_endproc
.LFE30:
	.size	_ultoa, .-_ultoa
.Letext0:
	.file 3 "/home/dever/OSdevelop/workspace/include/Gowinux/types.h"
	.file 4 "/home/dever/OSdevelop/workspace/include/lib/log.h"