	.file	"console.cpp"
	.intel_syntax noprefix
	.text
.Ltext0:
	.file 0 "/home/dever/OSdevelop/workspace" "/home/dever/OSdevelop/workspace/kernel/console.cpp"
	.section	.rodata
	.align 2
	.type	_ZN12_GLOBAL__N_1L12CRT_ADDR_REGE, @object
	.size	_ZN12_GLOBAL__N_1L12CRT_ADDR_REGE, 2
_ZN12_GLOBAL__N_1L12CRT_ADDR_REGE:
	.value	980
	.align 2
	.type	_ZN12_GLOBAL__N_1L12CRT_DATA_REGE, @object
	.size	_ZN12_GLOBAL__N_1L12CRT_DATA_REGE, 2
_ZN12_GLOBAL__N_1L12CRT_DATA_REGE:
	.value	981
	.type	_ZN12_GLOBAL__N_1L16CRT_START_ADDR_HE, @object
	.size	_ZN12_GLOBAL__N_1L16CRT_START_ADDR_HE, 1
_ZN12_GLOBAL__N_1L16CRT_START_ADDR_HE:
	.byte	12
	.type	_ZN12_GLOBAL__N_1L16CRT_START_ADDR_LE, @object
	.size	_ZN12_GLOBAL__N_1L16CRT_START_ADDR_LE, 1
_ZN12_GLOBAL__N_1L16CRT_START_ADDR_LE:
	.byte	13
	.type	_ZN12_GLOBAL__N_1L12CRT_CURSOR_HE, @object
	.size	_ZN12_GLOBAL__N_1L12CRT_CURSOR_HE, 1
_ZN12_GLOBAL__N_1L12CRT_CURSOR_HE:
	.byte	14
	.type	_ZN12_GLOBAL__N_1L12CRT_CURSOR_LE, @object
	.size	_ZN12_GLOBAL__N_1L12CRT_CURSOR_LE, 1
_ZN12_GLOBAL__N_1L12CRT_CURSOR_LE:
	.byte	15
	.align 4
	.type	_ZN12_GLOBAL__N_1L8MEM_BASEE, @object
	.size	_ZN12_GLOBAL__N_1L8MEM_BASEE, 4
_ZN12_GLOBAL__N_1L8MEM_BASEE:
	.long	753664
	.align 4
	.type	_ZN12_GLOBAL__N_1L8MEM_SIZEE, @object
	.size	_ZN12_GLOBAL__N_1L8MEM_SIZEE, 4
_ZN12_GLOBAL__N_1L8MEM_SIZEE:
	.long	16384
	.align 4
	.type	_ZN12_GLOBAL__N_1L7MEM_ENDE, @object
	.size	_ZN12_GLOBAL__N_1L7MEM_ENDE, 4
_ZN12_GLOBAL__N_1L7MEM_ENDE:
	.long	770048
	.align 2
	.type	_ZN12_GLOBAL__N_1L5WIDTHE, @object
	.size	_ZN12_GLOBAL__N_1L5WIDTHE, 2
_ZN12_GLOBAL__N_1L5WIDTHE:
	.value	80
	.align 2
	.type	_ZN12_GLOBAL__N_1L6HEIGHTE, @object
	.size	_ZN12_GLOBAL__N_1L6HEIGHTE, 2
_ZN12_GLOBAL__N_1L6HEIGHTE:
	.value	25
	.align 2
	.type	_ZN12_GLOBAL__N_1L8ROW_SIZEE, @object
	.size	_ZN12_GLOBAL__N_1L8ROW_SIZEE, 2
_ZN12_GLOBAL__N_1L8ROW_SIZEE:
	.value	160
	.align 2
	.type	_ZN12_GLOBAL__N_1L8SCR_SIZEE, @object
	.size	_ZN12_GLOBAL__N_1L8SCR_SIZEE, 2
_ZN12_GLOBAL__N_1L8SCR_SIZEE:
	.value	4000
	.type	_ZN12_GLOBAL__N_1L3NULE, @object
	.size	_ZN12_GLOBAL__N_1L3NULE, 1
_ZN12_GLOBAL__N_1L3NULE:
	.zero	1
	.type	_ZN12_GLOBAL__N_1L3ENQE, @object
	.size	_ZN12_GLOBAL__N_1L3ENQE, 1
_ZN12_GLOBAL__N_1L3ENQE:
	.byte	5
	.type	_ZN12_GLOBAL__N_1L3ESCE, @object
	.size	_ZN12_GLOBAL__N_1L3ESCE, 1
_ZN12_GLOBAL__N_1L3ESCE:
	.byte	27
	.type	_ZN12_GLOBAL__N_1L3BELE, @object
	.size	_ZN12_GLOBAL__N_1L3BELE, 1
_ZN12_GLOBAL__N_1L3BELE:
	.byte	7
	.type	_ZN12_GLOBAL__N_1L2BSE, @object
	.size	_ZN12_GLOBAL__N_1L2BSE, 1
_ZN12_GLOBAL__N_1L2BSE:
	.byte	8
	.type	_ZN12_GLOBAL__N_1L2HTE, @object
	.size	_ZN12_GLOBAL__N_1L2HTE, 1
_ZN12_GLOBAL__N_1L2HTE:
	.byte	9
	.type	_ZN12_GLOBAL__N_1L2LFE, @object
	.size	_ZN12_GLOBAL__N_1L2LFE, 1
_ZN12_GLOBAL__N_1L2LFE:
	.byte	10
	.type	_ZN12_GLOBAL__N_1L2VTE, @object
	.size	_ZN12_GLOBAL__N_1L2VTE, 1
_ZN12_GLOBAL__N_1L2VTE:
	.byte	11
	.type	_ZN12_GLOBAL__N_1L2FFE, @object
	.size	_ZN12_GLOBAL__N_1L2FFE, 1
_ZN12_GLOBAL__N_1L2FFE:
	.byte	12
	.type	_ZN12_GLOBAL__N_1L2CRE, @object
	.size	_ZN12_GLOBAL__N_1L2CRE, 1
_ZN12_GLOBAL__N_1L2CRE:
	.byte	13
	.type	_ZN12_GLOBAL__N_1L3DELE, @object
	.size	_ZN12_GLOBAL__N_1L3DELE, 1
_ZN12_GLOBAL__N_1L3DELE:
	.byte	127
	.type	_ZN12_GLOBAL__N_1L5STYLEE, @object
	.size	_ZN12_GLOBAL__N_1L5STYLEE, 1
_ZN12_GLOBAL__N_1L5STYLEE:
	.byte	7
	.type	_ZN12_GLOBAL__N_1L5BLINKE, @object
	.size	_ZN12_GLOBAL__N_1L5BLINKE, 1
_ZN12_GLOBAL__N_1L5BLINKE:
	.byte	-128
	.type	_ZN12_GLOBAL__N_1L4BOLDE, @object
	.size	_ZN12_GLOBAL__N_1L4BOLDE, 1
_ZN12_GLOBAL__N_1L4BOLDE:
	.byte	15
	.type	_ZN12_GLOBAL__N_1L5UNDERE, @object
	.size	_ZN12_GLOBAL__N_1L5UNDERE, 1
_ZN12_GLOBAL__N_1L5UNDERE:
	.byte	15
	.align 2
	.type	_ZN12_GLOBAL__N_1L5ERASEE, @object
	.size	_ZN12_GLOBAL__N_1L5ERASEE, 2
_ZN12_GLOBAL__N_1L5ERASEE:
	.value	1824
	.type	_ZN12_GLOBAL__N_1L6ARG_NRE, @object
	.size	_ZN12_GLOBAL__N_1L6ARG_NRE, 1
_ZN12_GLOBAL__N_1L6ARG_NRE:
	.byte	16
	.type	_ZN12_GLOBAL__N_1L8TAB_SIZEE, @object
	.size	_ZN12_GLOBAL__N_1L8TAB_SIZEE, 1
_ZN12_GLOBAL__N_1L8TAB_SIZEE:
	.byte	8
	.text
	.type	_ZN12_GLOBAL__N_19console_t11getInstanceEv, @function
_ZN12_GLOBAL__N_19console_t11getInstanceEv:
.LFB16:
	.file 1 "/home/dever/OSdevelop/workspace/kernel/console.cpp"
	.loc 1 55 23
	.cfi_startproc
	push	ebp
	.cfi_def_cfa_offset 8
	.cfi_offset 5, -8
	mov	ebp, esp
	.cfi_def_cfa_register 5
	.loc 1 57 28
	mov	eax, OFFSET FLAT:_ZN12_GLOBAL__N_19console_t7consoleE
	.loc 1 58 5
	pop	ebp
	.cfi_restore 5
	.cfi_def_cfa 4, 4
	ret
	.cfi_endproc
.LFE16:
	.size	_ZN12_GLOBAL__N_19console_t11getInstanceEv, .-_ZN12_GLOBAL__N_19console_t11getInstanceEv
	.align 2
	.type	_ZN12_GLOBAL__N_19console_t9set_styleEj, @function
_ZN12_GLOBAL__N_19console_t9set_styleEj:
.LFB17:
	.loc 1 68 10
	.cfi_startproc
	push	ebp
	.cfi_def_cfa_offset 8
	.cfi_offset 5, -8
	mov	ebp, esp
	.cfi_def_cfa_register 5
	.loc 1 68 43
	mov	eax, DWORD PTR [ebp+12]
	mov	edx, eax
	mov	eax, DWORD PTR [ebp+8]
	mov	BYTE PTR [eax+130], dl
	.loc 1 68 50
	nop
	pop	ebp
	.cfi_restore 5
	.cfi_def_cfa 4, 4
	ret
	.cfi_endproc
.LFE17:
	.size	_ZN12_GLOBAL__N_19console_t9set_styleEj, .-_ZN12_GLOBAL__N_19console_t9set_styleEj
	.align 2
	.type	_ZN12_GLOBAL__N_19console_t9get_styleEv, @function
_ZN12_GLOBAL__N_19console_t9get_styleEv:
.LFB18:
	.loc 1 69 9
	.cfi_startproc
	push	ebp
	.cfi_def_cfa_offset 8
	.cfi_offset 5, -8
	mov	ebp, esp
	.cfi_def_cfa_register 5
	.loc 1 69 36
	mov	eax, DWORD PTR [ebp+8]
	movzx	eax, BYTE PTR [eax+130]
	movzx	eax, al
	.loc 1 69 43
	pop	ebp
	.cfi_restore 5
	.cfi_def_cfa 4, 4
	ret
	.cfi_endproc
.LFE18:
	.size	_ZN12_GLOBAL__N_19console_t9get_styleEv, .-_ZN12_GLOBAL__N_19console_t9get_styleEv
	.align 2
	.type	_ZN12_GLOBAL__N_19console_t13recover_styleEv, @function
_ZN12_GLOBAL__N_19console_t13recover_styleEv:
.LFB19:
	.loc 1 70 10
	.cfi_startproc
	push	ebp
	.cfi_def_cfa_offset 8
	.cfi_offset 5, -8
	mov	ebp, esp
	.cfi_def_cfa_register 5
	.loc 1 70 40
	mov	eax, DWORD PTR [ebp+8]
	mov	BYTE PTR [eax+130], 7
	.loc 1 70 49
	nop
	pop	ebp
	.cfi_restore 5
	.cfi_def_cfa 4, 4
	ret
	.cfi_endproc
.LFE19:
	.size	_ZN12_GLOBAL__N_19console_t13recover_styleEv, .-_ZN12_GLOBAL__N_19console_t13recover_styleEv
	.local	_ZN12_GLOBAL__N_19console_t7consoleE
	.comm	_ZN12_GLOBAL__N_19console_t7consoleE,132,32
	.align 2
	.type	_ZN12_GLOBAL__N_19console_t12console_initEv, @function
_ZN12_GLOBAL__N_19console_t12console_initEv:
.LFB20:
	.loc 1 130 1
	.cfi_startproc
	push	ebp
	.cfi_def_cfa_offset 8
	.cfi_offset 5, -8
	mov	ebp, esp
	.cfi_def_cfa_register 5
	sub	esp, 8
	.loc 1 131 14
	mov	eax, DWORD PTR [ebp+8]
	mov	DWORD PTR [eax], 753664
	.loc 1 132 14
	mov	eax, DWORD PTR [ebp+8]
	mov	DWORD PTR [eax+4], 16384
	.loc 1 133 13
	mov	eax, DWORD PTR [ebp+8]
	mov	DWORD PTR [eax+8], 770048
	.loc 1 134 14
	mov	eax, DWORD PTR [ebp+8]
	mov	DWORD PTR [eax+16], 4000
	.loc 1 135 11
	mov	eax, DWORD PTR [ebp+8]
	mov	DWORD PTR [eax+40], 80
	.loc 1 136 12
	mov	eax, DWORD PTR [ebp+8]
	mov	DWORD PTR [eax+44], 25
	.loc 1 137 14
	mov	eax, DWORD PTR [ebp+8]
	mov	DWORD PTR [eax+48], 160
	.loc 1 138 11
	mov	eax, DWORD PTR [ebp+8]
	mov	WORD PTR [eax+128], 1824
	.loc 1 139 11
	mov	eax, DWORD PTR [ebp+8]
	mov	BYTE PTR [eax+130], 7
	.loc 1 141 18
	sub	esp, 12
	push	DWORD PTR [ebp+8]
	call	_ZN12_GLOBAL__N_19console_t13console_clearEv
	add	esp, 16
	.loc 1 142 1
	nop
	leave
	.cfi_restore 5
	.cfi_def_cfa 4, 4
	ret
	.cfi_endproc
.LFE20:
	.size	_ZN12_GLOBAL__N_19console_t12console_initEv, .-_ZN12_GLOBAL__N_19console_t12console_initEv
	.align 2
	.type	_ZN12_GLOBAL__N_19console_t13console_clearEv, @function
_ZN12_GLOBAL__N_19console_t13console_clearEv:
.LFB21:
	.loc 1 145 1
	.cfi_startproc
	push	ebp
	.cfi_def_cfa_offset 8
	.cfi_offset 5, -8
	mov	ebp, esp
	.cfi_def_cfa_register 5
	sub	esp, 8
	.loc 1 146 18
	mov	eax, DWORD PTR [ebp+8]
	mov	DWORD PTR [eax+12], 753664
	.loc 1 147 15
	mov	eax, DWORD PTR [ebp+8]
	mov	DWORD PTR [eax+20], 753664
	.loc 1 148 23
	mov	eax, DWORD PTR [ebp+8]
	mov	DWORD PTR [eax+28], 0
	.loc 1 148 21
	mov	eax, DWORD PTR [ebp+8]
	mov	edx, DWORD PTR [eax+28]
	.loc 1 148 13
	mov	eax, DWORD PTR [ebp+8]
	mov	DWORD PTR [eax+24], edx
	.loc 1 149 21
	sub	esp, 12
	push	DWORD PTR [ebp+8]
	call	_ZN12_GLOBAL__N_19console_t10set_screenEv
	add	esp, 16
	.loc 1 150 21
	sub	esp, 12
	push	DWORD PTR [ebp+8]
	call	_ZN12_GLOBAL__N_19console_t10set_cursorEv
	add	esp, 16
	.loc 1 152 23
	sub	esp, 12
	push	DWORD PTR [ebp+8]
	call	_ZN12_GLOBAL__N_19console_t12erase_screenEv
	add	esp, 16
	.loc 1 153 1
	nop
	leave
	.cfi_restore 5
	.cfi_def_cfa 4, 4
	ret
	.cfi_endproc
.LFE21:
	.size	_ZN12_GLOBAL__N_19console_t13console_clearEv, .-_ZN12_GLOBAL__N_19console_t13console_clearEv
	.align 2
	.type	_ZN12_GLOBAL__N_19console_t15console_putcharEc, @function
_ZN12_GLOBAL__N_19console_t15console_putcharEc:
.LFB22:
	.loc 1 156 1
	.cfi_startproc
	push	ebp
	.cfi_def_cfa_offset 8
	.cfi_offset 5, -8
	mov	ebp, esp
	.cfi_def_cfa_register 5
	push	ebx
	sub	esp, 20
	.cfi_offset 3, -12
	mov	eax, DWORD PTR [ebp+12]
	mov	BYTE PTR [ebp-12], al
	.loc 1 157 15
	mov	eax, DWORD PTR [ebp+8]
	mov	eax, DWORD PTR [eax+24]
	.loc 1 157 5
	cmp	eax, 79
	jbe	.L10
	.loc 1 158 25
	sub	esp, 12
	push	DWORD PTR [ebp+8]
	call	_ZN12_GLOBAL__N_19console_t10command_crEv
	add	esp, 16
	.loc 1 159 25
	sub	esp, 12
	push	DWORD PTR [ebp+8]
	call	_ZN12_GLOBAL__N_19console_t10command_lfEv
	add	esp, 16
.L10:
	.loc 1 161 20
	movzx	edx, BYTE PTR [ebp-12]
	.loc 1 161 13
	mov	eax, DWORD PTR [ebp+8]
	mov	eax, DWORD PTR [eax+20]
	.loc 1 161 17
	lea	ebx, [eax+1]
	mov	ecx, DWORD PTR [ebp+8]
	mov	DWORD PTR [ecx+20], ebx
	.loc 1 161 20
	mov	BYTE PTR [eax], dl
	.loc 1 162 28
	mov	eax, DWORD PTR [ebp+8]
	movzx	eax, BYTE PTR [eax+130]
	mov	ebx, eax
	.loc 1 162 13
	mov	eax, DWORD PTR [ebp+8]
	mov	eax, DWORD PTR [eax+20]
	.loc 1 162 17
	lea	ecx, [eax+1]
	mov	edx, DWORD PTR [ebp+8]
	mov	DWORD PTR [edx+20], ecx
	.loc 1 162 20
	mov	BYTE PTR [eax], bl
	.loc 1 163 11
	mov	eax, DWORD PTR [ebp+8]
	mov	eax, DWORD PTR [eax+24]
	.loc 1 163 12
	lea	edx, [eax+1]
	mov	eax, DWORD PTR [ebp+8]
	mov	DWORD PTR [eax+24], edx
	.loc 1 164 1
	nop
	mov	ebx, DWORD PTR [ebp-4]
	leave
	.cfi_restore 5
	.cfi_restore 3
	.cfi_def_cfa 4, 4
	ret
	.cfi_endproc
.LFE22:
	.size	_ZN12_GLOBAL__N_19console_t15console_putcharEc, .-_ZN12_GLOBAL__N_19console_t15console_putcharEc
	.align 2
	.type	_ZN12_GLOBAL__N_19console_t12erase_screenEv, @function
_ZN12_GLOBAL__N_19console_t12erase_screenEv:
.LFB23:
	.loc 1 167 1
	.cfi_startproc
	push	ebp
	.cfi_def_cfa_offset 8
	.cfi_offset 5, -8
	mov	ebp, esp
	.cfi_def_cfa_register 5
	sub	esp, 16
	.loc 1 168 30
	mov	eax, DWORD PTR [ebp+8]
	mov	eax, DWORD PTR [eax+12]
	.loc 1 168 10
	mov	DWORD PTR [ebp-4], eax
	.loc 1 169 5
	jmp	.L12
.L13:
	.loc 1 170 14
	mov	eax, DWORD PTR [ebp-4]
	lea	edx, [eax+2]
	mov	DWORD PTR [ebp-4], edx
	.loc 1 170 17
	mov	WORD PTR [eax], 1824
.L12:
	.loc 1 169 32
	mov	eax, DWORD PTR [ebp+8]
	mov	eax, DWORD PTR [eax+12]
	.loc 1 169 39
	add	eax, 4000
	.loc 1 169 17
	cmp	DWORD PTR [ebp-4], eax
	jb	.L13
	.loc 1 172 1
	nop
	nop
	leave
	.cfi_restore 5
	.cfi_def_cfa 4, 4
	ret
	.cfi_endproc
.LFE23:
	.size	_ZN12_GLOBAL__N_19console_t12erase_screenEv, .-_ZN12_GLOBAL__N_19console_t12erase_screenEv
	.align 2
	.type	_ZN12_GLOBAL__N_19console_t11command_belEv, @function
_ZN12_GLOBAL__N_19console_t11command_belEv:
.LFB24:
	.loc 1 175 1
	.cfi_startproc
	push	ebp
	.cfi_def_cfa_offset 8
	.cfi_offset 5, -8
	mov	ebp, esp
	.cfi_def_cfa_register 5
	.loc 1 177 1
	nop
	pop	ebp
	.cfi_restore 5
	.cfi_def_cfa 4, 4
	ret
	.cfi_endproc
.LFE24:
	.size	_ZN12_GLOBAL__N_19console_t11command_belEv, .-_ZN12_GLOBAL__N_19console_t11command_belEv
	.align 2
	.type	_ZN12_GLOBAL__N_19console_t10command_bsEv, @function
_ZN12_GLOBAL__N_19console_t10command_bsEv:
.LFB25:
	.loc 1 180 1
	.cfi_startproc
	push	ebp
	.cfi_def_cfa_offset 8
	.cfi_offset 5, -8
	mov	ebp, esp
	.cfi_def_cfa_register 5
	.loc 1 181 15
	mov	eax, DWORD PTR [ebp+8]
	mov	eax, DWORD PTR [eax+24]
	.loc 1 181 5
	test	eax, eax
	je	.L17
	.loc 1 182 15
	mov	eax, DWORD PTR [ebp+8]
	mov	eax, DWORD PTR [eax+24]
	.loc 1 182 16
	lea	edx, [eax-1]
	mov	eax, DWORD PTR [ebp+8]
	mov	DWORD PTR [eax+24], edx
	.loc 1 183 15
	mov	eax, DWORD PTR [ebp+8]
	mov	eax, DWORD PTR [eax+20]
	.loc 1 183 19
	lea	edx, [eax-2]
	mov	eax, DWORD PTR [ebp+8]
	mov	DWORD PTR [eax+20], edx
.L17:
	.loc 1 185 1
	nop
	pop	ebp
	.cfi_restore 5
	.cfi_def_cfa 4, 4
	ret
	.cfi_endproc
.LFE25:
	.size	_ZN12_GLOBAL__N_19console_t10command_bsEv, .-_ZN12_GLOBAL__N_19console_t10command_bsEv
	.align 2
	.type	_ZN12_GLOBAL__N_19console_t11command_delEv, @function
_ZN12_GLOBAL__N_19console_t11command_delEv:
.LFB26:
	.loc 1 188 1
	.cfi_startproc
	push	ebp
	.cfi_def_cfa_offset 8
	.cfi_offset 5, -8
	mov	ebp, esp
	.cfi_def_cfa_register 5
	.loc 1 189 18
	mov	eax, DWORD PTR [ebp+8]
	mov	eax, DWORD PTR [eax+20]
	.loc 1 189 5
	mov	edx, eax
	.loc 1 189 24
	mov	eax, DWORD PTR [ebp+8]
	movzx	eax, WORD PTR [eax+128]
	.loc 1 189 22
	mov	WORD PTR [edx], ax
	.loc 1 190 1
	nop
	pop	ebp
	.cfi_restore 5
	.cfi_def_cfa 4, 4
	ret
	.cfi_endproc
.LFE26:
	.size	_ZN12_GLOBAL__N_19console_t11command_delEv, .-_ZN12_GLOBAL__N_19console_t11command_delEv
	.align 2
	.type	_ZN12_GLOBAL__N_19console_t10command_htEv, @function
_ZN12_GLOBAL__N_19console_t10command_htEv:
.LFB27:
	.loc 1 193 1
	.cfi_startproc
	push	ebp
	.cfi_def_cfa_offset 8
	.cfi_offset 5, -8
	mov	ebp, esp
	.cfi_def_cfa_register 5
	sub	esp, 24
	.loc 1 194 37
	mov	eax, DWORD PTR [ebp+8]
	mov	eax, DWORD PTR [eax+24]
	.loc 1 194 39
	and	eax, 7
	mov	edx, eax
	.loc 1 194 10
	mov	eax, 8
	sub	eax, edx
	mov	DWORD PTR [ebp-12], eax
	.loc 1 195 11
	mov	eax, DWORD PTR [ebp+8]
	mov	edx, DWORD PTR [eax+24]
	.loc 1 195 13
	mov	eax, DWORD PTR [ebp-12]
	add	edx, eax
	mov	eax, DWORD PTR [ebp+8]
	mov	DWORD PTR [eax+24], edx
	.loc 1 196 11
	mov	eax, DWORD PTR [ebp+8]
	mov	eax, DWORD PTR [eax+20]
	.loc 1 196 26
	mov	edx, DWORD PTR [ebp-12]
	add	edx, edx
	.loc 1 196 15
	add	edx, eax
	mov	eax, DWORD PTR [ebp+8]
	mov	DWORD PTR [eax+20], edx
	.loc 1 197 15
	mov	eax, DWORD PTR [ebp+8]
	mov	eax, DWORD PTR [eax+24]
	.loc 1 197 5
	cmp	eax, 79
	jbe	.L21
	.loc 1 198 15
	mov	eax, DWORD PTR [ebp+8]
	mov	eax, DWORD PTR [eax+24]
	.loc 1 198 17
	lea	edx, [eax-80]
	mov	eax, DWORD PTR [ebp+8]
	mov	DWORD PTR [eax+24], edx
	.loc 1 199 15
	mov	eax, DWORD PTR [ebp+8]
	mov	eax, DWORD PTR [eax+20]
	.loc 1 199 19
	lea	edx, [eax-160]
	mov	eax, DWORD PTR [ebp+8]
	mov	DWORD PTR [eax+20], edx
	.loc 1 200 25
	sub	esp, 12
	push	DWORD PTR [ebp+8]
	call	_ZN12_GLOBAL__N_19console_t10command_lfEv
	add	esp, 16
.L21:
	.loc 1 202 1
	nop
	leave
	.cfi_restore 5
	.cfi_def_cfa 4, 4
	ret
	.cfi_endproc
.LFE27:
	.size	_ZN12_GLOBAL__N_19console_t10command_htEv, .-_ZN12_GLOBAL__N_19console_t10command_htEv
	.align 2
	.type	_ZN12_GLOBAL__N_19console_t9scroll_upEv, @function
_ZN12_GLOBAL__N_19console_t9scroll_upEv:
.LFB28:
	.loc 1 205 1
	.cfi_startproc
	push	ebp
	.cfi_def_cfa_offset 8
	.cfi_offset 5, -8
	mov	ebp, esp
	.cfi_def_cfa_register 5
	sub	esp, 24
	.loc 1 207 16
	mov	eax, DWORD PTR [ebp+8]
	mov	eax, DWORD PTR [eax+12]
	.loc 1 207 34
	add	eax, 4160
	.loc 1 207 5
	cmp	eax, 770047
	jbe	.L23
	.loc 1 209 47
	mov	eax, DWORD PTR [ebp+8]
	mov	eax, DWORD PTR [eax+12]
	.loc 1 209 15
	sub	esp, 4
	push	4000
	push	eax
	push	753664
	call	memcpy
	add	esp, 16
	.loc 1 211 15
	mov	eax, DWORD PTR [ebp+8]
	mov	edx, DWORD PTR [eax+20]
	.loc 1 211 29
	mov	eax, DWORD PTR [ebp+8]
	mov	eax, DWORD PTR [eax+12]
	.loc 1 211 19
	sub	edx, eax
	add	edx, 753664
	mov	eax, DWORD PTR [ebp+8]
	mov	DWORD PTR [eax+20], edx
	.loc 1 213 22
	mov	eax, DWORD PTR [ebp+8]
	mov	DWORD PTR [eax+12], 753664
.L23:
	.loc 1 216 30
	mov	eax, DWORD PTR [ebp+8]
	mov	eax, DWORD PTR [eax+12]
	.loc 1 216 37
	add	eax, 4000
	.loc 1 216 10
	mov	DWORD PTR [ebp-12], eax
.LBB2:
	.loc 1 217 14
	mov	DWORD PTR [ebp-16], 0
	.loc 1 217 5
	jmp	.L24
.L25:
	.loc 1 218 14 discriminator 3
	mov	eax, DWORD PTR [ebp-12]
	lea	edx, [eax+2]
	mov	DWORD PTR [ebp-12], edx
	.loc 1 218 17 discriminator 3
	mov	WORD PTR [eax], 1824
	.loc 1 217 5 discriminator 3
	add	DWORD PTR [ebp-16], 1
.L24:
	.loc 1 217 23 discriminator 1
	cmp	DWORD PTR [ebp-16], 79
	jle	.L25
.LBE2:
	.loc 1 220 11
	mov	eax, DWORD PTR [ebp+8]
	mov	eax, DWORD PTR [eax+12]
	.loc 1 220 18
	lea	edx, [eax+160]
	mov	eax, DWORD PTR [ebp+8]
	mov	DWORD PTR [eax+12], edx
	.loc 1 221 11
	mov	eax, DWORD PTR [ebp+8]
	mov	eax, DWORD PTR [eax+20]
	.loc 1 221 15
	lea	edx, [eax+160]
	mov	eax, DWORD PTR [ebp+8]
	mov	DWORD PTR [eax+20], edx
	.loc 1 222 15
	sub	esp, 12
	push	DWORD PTR [ebp+8]
	call	_ZN12_GLOBAL__N_19console_t10set_screenEv
	add	esp, 16
	.loc 1 223 1
	nop
	leave
	.cfi_restore 5
	.cfi_def_cfa 4, 4
	ret
	.cfi_endproc
.LFE28:
	.size	_ZN12_GLOBAL__N_19console_t9scroll_upEv, .-_ZN12_GLOBAL__N_19console_t9scroll_upEv
	.align 2
	.type	_ZN12_GLOBAL__N_19console_t11scroll_downEv, @function
_ZN12_GLOBAL__N_19console_t11scroll_downEv:
.LFB29:
	.loc 1 226 1
	.cfi_startproc
	push	ebp
	.cfi_def_cfa_offset 8
	.cfi_offset 5, -8
	mov	ebp, esp
	.cfi_def_cfa_register 5
	sub	esp, 8
	.loc 1 227 11
	mov	eax, DWORD PTR [ebp+8]
	mov	eax, DWORD PTR [eax+12]
	.loc 1 227 18
	lea	edx, [eax-160]
	mov	eax, DWORD PTR [ebp+8]
	mov	DWORD PTR [eax+12], edx
	.loc 1 228 15
	mov	eax, DWORD PTR [ebp+8]
	mov	eax, DWORD PTR [eax+12]
	.loc 1 228 5
	cmp	eax, 753663
	ja	.L27
	.loc 1 229 22
	mov	eax, DWORD PTR [ebp+8]
	mov	DWORD PTR [eax+12], 753664
.L27:
	.loc 1 231 21
	sub	esp, 12
	push	DWORD PTR [ebp+8]
	call	_ZN12_GLOBAL__N_19console_t10set_screenEv
	add	esp, 16
	.loc 1 232 1
	nop
	leave
	.cfi_restore 5
	.cfi_def_cfa 4, 4
	ret
	.cfi_endproc
.LFE29:
	.size	_ZN12_GLOBAL__N_19console_t11scroll_downEv, .-_ZN12_GLOBAL__N_19console_t11scroll_downEv
	.align 2
	.type	_ZN12_GLOBAL__N_19console_t10command_lfEv, @function
_ZN12_GLOBAL__N_19console_t10command_lfEv:
.LFB30:
	.loc 1 235 1
	.cfi_startproc
	push	ebp
	.cfi_def_cfa_offset 8
	.cfi_offset 5, -8
	mov	ebp, esp
	.cfi_def_cfa_register 5
	sub	esp, 8
	.loc 1 236 9
	mov	eax, DWORD PTR [ebp+8]
	mov	eax, DWORD PTR [eax+28]
	.loc 1 236 11
	add	eax, 1
	.loc 1 236 5
	cmp	eax, 24
	ja	.L29
	.loc 1 237 15
	mov	eax, DWORD PTR [ebp+8]
	mov	eax, DWORD PTR [eax+28]
	.loc 1 237 16
	lea	edx, [eax+1]
	mov	eax, DWORD PTR [ebp+8]
	mov	DWORD PTR [eax+28], edx
	.loc 1 238 15
	mov	eax, DWORD PTR [ebp+8]
	mov	eax, DWORD PTR [eax+20]
	.loc 1 238 19
	lea	edx, [eax+160]
	mov	eax, DWORD PTR [ebp+8]
	mov	DWORD PTR [eax+20], edx
	.loc 1 242 1
	jmp	.L31
.L29:
	.loc 1 240 24
	sub	esp, 12
	push	DWORD PTR [ebp+8]
	call	_ZN12_GLOBAL__N_19console_t9scroll_upEv
	add	esp, 16
.L31:
	.loc 1 242 1
	nop
	leave
	.cfi_restore 5
	.cfi_def_cfa 4, 4
	ret
	.cfi_endproc
.LFE30:
	.size	_ZN12_GLOBAL__N_19console_t10command_lfEv, .-_ZN12_GLOBAL__N_19console_t10command_lfEv
	.align 2
	.type	_ZN12_GLOBAL__N_19console_t10command_vtEv, @function
_ZN12_GLOBAL__N_19console_t10command_vtEv:
.LFB31:
	.loc 1 245 1
	.cfi_startproc
	push	ebp
	.cfi_def_cfa_offset 8
	.cfi_offset 5, -8
	mov	ebp, esp
	.cfi_def_cfa_register 5
	sub	esp, 24
	.loc 1 246 21
	sub	esp, 12
	push	DWORD PTR [ebp+8]
	call	_ZN12_GLOBAL__N_19console_t10command_lfEv
	add	esp, 16
	.loc 1 247 27
	mov	eax, DWORD PTR [ebp+8]
	mov	eax, DWORD PTR [eax+24]
	.loc 1 247 10
	and	eax, -8
	mov	DWORD PTR [ebp-12], eax
	.loc 1 248 25
	mov	eax, DWORD PTR [ebp+8]
	mov	eax, DWORD PTR [eax+24]
	.loc 1 248 10
	sub	eax, DWORD PTR [ebp-12]
	mov	DWORD PTR [ebp-16], eax
	.loc 1 249 13
	mov	eax, DWORD PTR [ebp+8]
	mov	edx, DWORD PTR [ebp-12]
	mov	DWORD PTR [eax+24], edx
	.loc 1 250 11
	mov	eax, DWORD PTR [ebp+8]
	mov	edx, DWORD PTR [eax+20]
	.loc 1 250 26
	mov	eax, DWORD PTR [ebp-16]
	add	eax, eax
	.loc 1 250 15
	sub	edx, eax
	mov	eax, DWORD PTR [ebp+8]
	mov	DWORD PTR [eax+20], edx
	.loc 1 251 1
	nop
	leave
	.cfi_restore 5
	.cfi_def_cfa 4, 4
	ret
	.cfi_endproc
.LFE31:
	.size	_ZN12_GLOBAL__N_19console_t10command_vtEv, .-_ZN12_GLOBAL__N_19console_t10command_vtEv
	.align 2
	.type	_ZN12_GLOBAL__N_19console_t10clear_pageEj, @function
_ZN12_GLOBAL__N_19console_t10clear_pageEj:
.LFB32:
	.loc 1 254 1
	.cfi_startproc
	push	ebp
	.cfi_def_cfa_offset 8
	.cfi_offset 5, -8
	mov	ebp, esp
	.cfi_def_cfa_register 5
	sub	esp, 8
	.loc 1 255 18
	mov	eax, DWORD PTR [ebp+8]
	mov	edx, DWORD PTR [ebp+12]
	mov	DWORD PTR [eax+12], edx
	.loc 1 256 15
	mov	eax, DWORD PTR [ebp+8]
	mov	edx, DWORD PTR [ebp+12]
	mov	DWORD PTR [eax+20], edx
	.loc 1 257 23
	mov	eax, DWORD PTR [ebp+8]
	mov	DWORD PTR [eax+28], 0
	.loc 1 257 21
	mov	eax, DWORD PTR [ebp+8]
	mov	edx, DWORD PTR [eax+28]
	.loc 1 257 13
	mov	eax, DWORD PTR [ebp+8]
	mov	DWORD PTR [eax+24], edx
	.loc 1 258 21
	sub	esp, 12
	push	DWORD PTR [ebp+8]
	call	_ZN12_GLOBAL__N_19console_t10set_screenEv
	add	esp, 16
	.loc 1 259 23
	sub	esp, 12
	push	DWORD PTR [ebp+8]
	call	_ZN12_GLOBAL__N_19console_t12erase_screenEv
	add	esp, 16
	.loc 1 260 1
	nop
	leave
	.cfi_restore 5
	.cfi_def_cfa 4, 4
	ret
	.cfi_endproc
.LFE32:
	.size	_ZN12_GLOBAL__N_19console_t10clear_pageEj, .-_ZN12_GLOBAL__N_19console_t10clear_pageEj
	.align 2
	.type	_ZN12_GLOBAL__N_19console_t10command_ffEv, @function
_ZN12_GLOBAL__N_19console_t10command_ffEv:
.LFB33:
	.loc 1 263 1
	.cfi_startproc
	push	ebp
	.cfi_def_cfa_offset 8
	.cfi_offset 5, -8
	mov	ebp, esp
	.cfi_def_cfa_register 5
	sub	esp, 8
	.loc 1 265 16
	mov	eax, DWORD PTR [ebp+8]
	mov	eax, DWORD PTR [eax+12]
	.loc 1 265 23
	add	eax, 8000
	.loc 1 265 5
	cmp	eax, 770047
	jbe	.L35
	.loc 1 266 25
	sub	esp, 8
	push	753664
	push	DWORD PTR [ebp+8]
	call	_ZN12_GLOBAL__N_19console_t10clear_pageEj
	add	esp, 16
	.loc 1 267 9
	jmp	.L34
.L35:
	.loc 1 269 32
	mov	eax, DWORD PTR [ebp+8]
	mov	eax, DWORD PTR [eax+12]
	.loc 1 269 25
	add	eax, 4000
	sub	esp, 8
	push	eax
	push	DWORD PTR [ebp+8]
	call	_ZN12_GLOBAL__N_19console_t10clear_pageEj
	add	esp, 16
.L34:
	.loc 1 271 1
	leave
	.cfi_restore 5
	.cfi_def_cfa 4, 4
	ret
	.cfi_endproc
.LFE33:
	.size	_ZN12_GLOBAL__N_19console_t10command_ffEv, .-_ZN12_GLOBAL__N_19console_t10command_ffEv
	.align 2
	.type	_ZN12_GLOBAL__N_19console_t10command_crEv, @function
_ZN12_GLOBAL__N_19console_t10command_crEv:
.LFB34:
	.loc 1 274 1
	.cfi_startproc
	push	ebp
	.cfi_def_cfa_offset 8
	.cfi_offset 5, -8
	mov	ebp, esp
	.cfi_def_cfa_register 5
	.loc 1 275 11
	mov	eax, DWORD PTR [ebp+8]
	mov	edx, DWORD PTR [eax+20]
	.loc 1 275 25
	mov	eax, DWORD PTR [ebp+8]
	mov	eax, DWORD PTR [eax+24]
	.loc 1 275 27
	add	eax, eax
	.loc 1 275 15
	sub	edx, eax
	mov	eax, DWORD PTR [ebp+8]
	mov	DWORD PTR [eax+20], edx
	.loc 1 276 13
	mov	eax, DWORD PTR [ebp+8]
	mov	DWORD PTR [eax+24], 0
	.loc 1 277 1
	nop
	pop	ebp
	.cfi_restore 5
	.cfi_def_cfa 4, 4
	ret
	.cfi_endproc
.LFE34:
	.size	_ZN12_GLOBAL__N_19console_t10command_crEv, .-_ZN12_GLOBAL__N_19console_t10command_crEv
	.align 2
	.type	_ZN12_GLOBAL__N_19console_t13console_writeEPcj, @function
_ZN12_GLOBAL__N_19console_t13console_writeEPcj:
.LFB35:
	.loc 1 280 1
	.cfi_startproc
	push	ebp
	.cfi_def_cfa_offset 8
	.cfi_offset 5, -8
	mov	ebp, esp
	.cfi_def_cfa_register 5
	sub	esp, 24
	.loc 1 281 19
	mov	eax, DWORD PTR [ebp+12]
	lea	edx, [eax+1]
	mov	DWORD PTR [ebp+12], edx
	movzx	eax, BYTE PTR [eax]
	mov	BYTE PTR [ebp-9], al
	.loc 1 282 31
	mov	eax, DWORD PTR [ebp+8]
	mov	eax, DWORD PTR [eax+20]
	.loc 1 282 11
	mov	DWORD PTR [ebp-16], eax
	.loc 1 283 5
	jmp	.L39
.L53:
	.loc 1 284 17
	movsx	eax, BYTE PTR [ebp-9]
	.loc 1 284 9
	cmp	eax, 13
	jg	.L40
	test	eax, eax
	js	.L41
	cmp	eax, 13
	ja	.L41
	mov	eax, DWORD PTR .L43[0+eax*4]
	jmp	eax
	.section	.rodata
	.align 4
	.align 4
.L43:
	.long	.L54
	.long	.L41
	.long	.L41
	.long	.L41
	.long	.L41
	.long	.L41
	.long	.L41
	.long	.L49
	.long	.L48
	.long	.L47
	.long	.L46
	.long	.L45
	.long	.L44
	.long	.L42
	.text
.L40:
	cmp	eax, 127
	je	.L51
	jmp	.L41
.L49:
	.loc 1 288 30
	push	DWORD PTR [ebp+8]
	call	_ZN12_GLOBAL__N_19console_t11command_belEv
	add	esp, 4
	.loc 1 289 13
	jmp	.L52
.L48:
	.loc 1 291 29
	push	DWORD PTR [ebp+8]
	call	_ZN12_GLOBAL__N_19console_t10command_bsEv
	add	esp, 4
	.loc 1 292 13
	jmp	.L52
.L47:
	.loc 1 294 29
	sub	esp, 12
	push	DWORD PTR [ebp+8]
	call	_ZN12_GLOBAL__N_19console_t10command_htEv
	add	esp, 16
	.loc 1 295 13
	jmp	.L52
.L46:
	.loc 1 297 29
	sub	esp, 12
	push	DWORD PTR [ebp+8]
	call	_ZN12_GLOBAL__N_19console_t10command_lfEv
	add	esp, 16
	.loc 1 298 29
	sub	esp, 12
	push	DWORD PTR [ebp+8]
	call	_ZN12_GLOBAL__N_19console_t10command_crEv
	add	esp, 16
	.loc 1 299 13
	jmp	.L52
.L45:
	.loc 1 301 29
	sub	esp, 12
	push	DWORD PTR [ebp+8]
	call	_ZN12_GLOBAL__N_19console_t10command_vtEv
	add	esp, 16
	.loc 1 302 13
	jmp	.L52
.L44:
	.loc 1 304 29
	sub	esp, 12
	push	DWORD PTR [ebp+8]
	call	_ZN12_GLOBAL__N_19console_t10command_ffEv
	add	esp, 16
	.loc 1 305 13
	jmp	.L52
.L42:
	.loc 1 307 29
	sub	esp, 12
	push	DWORD PTR [ebp+8]
	call	_ZN12_GLOBAL__N_19console_t10command_crEv
	add	esp, 16
	.loc 1 308 13
	jmp	.L52
.L51:
	.loc 1 310 30
	sub	esp, 12
	push	DWORD PTR [ebp+8]
	call	_ZN12_GLOBAL__N_19console_t11command_delEv
	add	esp, 16
	.loc 1 311 13
	jmp	.L52
.L41:
	.loc 1 313 34
	movsx	eax, BYTE PTR [ebp-9]
	sub	esp, 8
	push	eax
	push	DWORD PTR [ebp+8]
	call	_ZN12_GLOBAL__N_19console_t15console_putcharEc
	add	esp, 16
	.loc 1 314 13
	jmp	.L52
.L54:
	.loc 1 286 13
	nop
.L52:
	.loc 1 316 18
	mov	eax, DWORD PTR [ebp+12]
	lea	edx, [eax+1]
	mov	DWORD PTR [ebp+12], edx
	.loc 1 316 12
	movzx	eax, BYTE PTR [eax]
	mov	BYTE PTR [ebp-9], al
.L39:
	.loc 1 283 17
	mov	eax, DWORD PTR [ebp+16]
	lea	edx, [eax-1]
	mov	DWORD PTR [ebp+16], edx
	test	eax, eax
	setne	al
	test	al, al
	jne	.L53
	.loc 1 319 15
	sub	esp, 12
	push	DWORD PTR [ebp+8]
	call	_ZN12_GLOBAL__N_19console_t10set_cursorEv
	add	esp, 16
	.loc 1 320 1
	nop
	leave
	.cfi_restore 5
	.cfi_def_cfa 4, 4
	ret
	.cfi_endproc
.LFE35:
	.size	_ZN12_GLOBAL__N_19console_t13console_writeEPcj, .-_ZN12_GLOBAL__N_19console_t13console_writeEPcj
	.align 2
	.type	_ZN12_GLOBAL__N_19console_t10get_screenEv, @function
_ZN12_GLOBAL__N_19console_t10get_screenEv:
.LFB36:
	.loc 1 323 1
	.cfi_startproc
	push	ebp
	.cfi_def_cfa_offset 8
	.cfi_offset 5, -8
	mov	ebp, esp
	.cfi_def_cfa_register 5
	sub	esp, 8
	.loc 1 324 9
	sub	esp, 8
	push	12
	push	980
	call	outb
	add	esp, 16
	.loc 1 325 23
	sub	esp, 12
	push	981
	call	inb
	add	esp, 16
	.loc 1 325 38
	movzx	eax, al
	sal	eax, 8
	mov	edx, eax
	.loc 1 325 18
	mov	eax, DWORD PTR [ebp+8]
	mov	DWORD PTR [eax+12], edx
	.loc 1 326 9
	sub	esp, 8
	push	13
	push	980
	call	outb
	add	esp, 16
	.loc 1 327 24
	sub	esp, 12
	push	981
	call	inb
	add	esp, 16
	.loc 1 327 11
	mov	edx, DWORD PTR [ebp+8]
	mov	edx, DWORD PTR [edx+12]
	.loc 1 327 18
	movzx	eax, al
	or	edx, eax
	mov	eax, DWORD PTR [ebp+8]
	mov	DWORD PTR [eax+12], edx
	.loc 1 329 11
	mov	eax, DWORD PTR [ebp+8]
	mov	eax, DWORD PTR [eax+12]
	.loc 1 329 18
	lea	edx, [eax+eax]
	mov	eax, DWORD PTR [ebp+8]
	mov	DWORD PTR [eax+12], edx
	.loc 1 330 11
	mov	eax, DWORD PTR [ebp+8]
	mov	eax, DWORD PTR [eax+12]
	.loc 1 330 18
	lea	edx, [eax+753664]
	mov	eax, DWORD PTR [ebp+8]
	mov	DWORD PTR [eax+12], edx
	.loc 1 331 1
	nop
	leave
	.cfi_restore 5
	.cfi_def_cfa 4, 4
	ret
	.cfi_endproc
.LFE36:
	.size	_ZN12_GLOBAL__N_19console_t10get_screenEv, .-_ZN12_GLOBAL__N_19console_t10get_screenEv
	.align 2
	.type	_ZN12_GLOBAL__N_19console_t10set_screenEv, @function
_ZN12_GLOBAL__N_19console_t10set_screenEv:
.LFB38:
	.loc 1 340 1
	.cfi_startproc
	push	ebp
	.cfi_def_cfa_offset 8
	.cfi_offset 5, -8
	mov	ebp, esp
	.cfi_def_cfa_register 5
	sub	esp, 8
	.loc 1 341 9
	sub	esp, 8
	push	12
	push	980
	call	outb
	add	esp, 16
	.loc 1 342 32
	mov	eax, DWORD PTR [ebp+8]
	mov	eax, DWORD PTR [eax+12]
	.loc 1 342 39
	sub	eax, 753664
	.loc 1 342 51
	shr	eax, 9
	.loc 1 342 9
	movzx	eax, al
	sub	esp, 8
	push	eax
	push	981
	call	outb
	add	esp, 16
	.loc 1 343 9
	sub	esp, 8
	push	13
	push	980
	call	outb
	add	esp, 16
	.loc 1 344 32
	mov	eax, DWORD PTR [ebp+8]
	mov	eax, DWORD PTR [eax+12]
	.loc 1 344 39
	sub	eax, 753664
	.loc 1 344 51
	shr	eax
	.loc 1 344 9
	movzx	eax, al
	sub	esp, 8
	push	eax
	push	981
	call	outb
	add	esp, 16
	.loc 1 345 1
	nop
	leave
	.cfi_restore 5
	.cfi_def_cfa 4, 4
	ret
	.cfi_endproc
.LFE38:
	.size	_ZN12_GLOBAL__N_19console_t10set_screenEv, .-_ZN12_GLOBAL__N_19console_t10set_screenEv
	.align 2
	.type	_ZN12_GLOBAL__N_19console_t10get_cursorEv, @function
_ZN12_GLOBAL__N_19console_t10get_cursorEv:
.LFB39:
	.loc 1 348 1
	.cfi_startproc
	push	ebp
	.cfi_def_cfa_offset 8
	.cfi_offset 5, -8
	mov	ebp, esp
	.cfi_def_cfa_register 5
	sub	esp, 24
	.loc 1 349 9
	sub	esp, 8
	push	14
	push	980
	call	outb
	add	esp, 16
	.loc 1 350 20
	sub	esp, 12
	push	981
	call	inb
	add	esp, 16
	.loc 1 350 35
	movzx	eax, al
	sal	eax, 8
	mov	edx, eax
	.loc 1 350 15
	mov	eax, DWORD PTR [ebp+8]
	mov	DWORD PTR [eax+20], edx
	.loc 1 351 9
	sub	esp, 8
	push	15
	push	980
	call	outb
	add	esp, 16
	.loc 1 352 21
	sub	esp, 12
	push	981
	call	inb
	add	esp, 16
	.loc 1 352 11
	mov	edx, DWORD PTR [ebp+8]
	mov	edx, DWORD PTR [edx+20]
	.loc 1 352 15
	movzx	eax, al
	or	edx, eax
	mov	eax, DWORD PTR [ebp+8]
	mov	DWORD PTR [eax+20], edx
	.loc 1 354 11
	mov	eax, DWORD PTR [ebp+8]
	mov	eax, DWORD PTR [eax+20]
	.loc 1 354 15
	lea	edx, [eax+eax]
	mov	eax, DWORD PTR [ebp+8]
	mov	DWORD PTR [eax+20], edx
	.loc 1 355 11
	mov	eax, DWORD PTR [ebp+8]
	mov	eax, DWORD PTR [eax+20]
	.loc 1 355 15
	lea	edx, [eax+753664]
	mov	eax, DWORD PTR [ebp+8]
	mov	DWORD PTR [eax+20], edx
	.loc 1 358 24
	mov	eax, DWORD PTR [ebp+8]
	mov	edx, DWORD PTR [eax+20]
	.loc 1 358 36
	mov	eax, DWORD PTR [ebp+8]
	mov	eax, DWORD PTR [eax+12]
	.loc 1 358 28
	sub	edx, eax
	.loc 1 358 9
	mov	eax, edx
	shr	eax
	mov	DWORD PTR [ebp-12], eax
	.loc 1 359 21
	mov	ecx, DWORD PTR [ebp-12]
	mov	edx, -858993459
	mov	eax, ecx
	mul	edx
	shr	edx, 6
	mov	eax, edx
	sal	eax, 2
	add	eax, edx
	sal	eax, 4
	sub	ecx, eax
	mov	edx, ecx
	.loc 1 359 13
	mov	eax, DWORD PTR [ebp+8]
	mov	DWORD PTR [eax+24], edx
	.loc 1 360 21
	mov	eax, DWORD PTR [ebp-12]
	mov	edx, -858993459
	mul	edx
	shr	edx, 6
	.loc 1 360 13
	mov	eax, DWORD PTR [ebp+8]
	mov	DWORD PTR [eax+28], edx
	.loc 1 361 1
	nop
	leave
	.cfi_restore 5
	.cfi_def_cfa 4, 4
	ret
	.cfi_endproc
.LFE39:
	.size	_ZN12_GLOBAL__N_19console_t10get_cursorEv, .-_ZN12_GLOBAL__N_19console_t10get_cursorEv
	.align 2
	.type	_ZN12_GLOBAL__N_19console_t10set_cursorEv, @function
_ZN12_GLOBAL__N_19console_t10set_cursorEv:
.LFB40:
	.loc 1 364 1
	.cfi_startproc
	push	ebp
	.cfi_def_cfa_offset 8
	.cfi_offset 5, -8
	mov	ebp, esp
	.cfi_def_cfa_register 5
	sub	esp, 8
	.loc 1 365 9
	sub	esp, 8
	push	14
	push	980
	call	outb
	add	esp, 16
	.loc 1 366 32
	mov	eax, DWORD PTR [ebp+8]
	mov	eax, DWORD PTR [eax+20]
	.loc 1 366 36
	sub	eax, 753664
	.loc 1 366 48
	shr	eax, 9
	.loc 1 366 9
	movzx	eax, al
	sub	esp, 8
	push	eax
	push	981
	call	outb
	add	esp, 16
	.loc 1 367 9
	sub	esp, 8
	push	15
	push	980
	call	outb
	add	esp, 16
	.loc 1 368 32
	mov	eax, DWORD PTR [ebp+8]
	mov	eax, DWORD PTR [eax+20]
	.loc 1 368 36
	sub	eax, 753664
	.loc 1 368 48
	shr	eax
	.loc 1 368 9
	movzx	eax, al
	sub	esp, 8
	push	eax
	push	981
	call	outb
	add	esp, 16
	.loc 1 369 1
	nop
	leave
	.cfi_restore 5
	.cfi_def_cfa 4, 4
	ret
	.cfi_endproc
.LFE40:
	.size	_ZN12_GLOBAL__N_19console_t10set_cursorEv, .-_ZN12_GLOBAL__N_19console_t10set_cursorEv
	.globl	console_clear
	.type	console_clear, @function
console_clear:
.LFB41:
	.loc 1 374 22
	.cfi_startproc
	push	ebp
	.cfi_def_cfa_offset 8
	.cfi_offset 5, -8
	mov	ebp, esp
	.cfi_def_cfa_register 5
	sub	esp, 8
	.loc 1 374 63
	call	_ZN12_GLOBAL__N_19console_t11getInstanceEv
	sub	esp, 12
	push	eax
	call	_ZN12_GLOBAL__N_19console_t13console_clearEv
	add	esp, 16
	.loc 1 374 67
	nop
	leave
	.cfi_restore 5
	.cfi_def_cfa 4, 4
	ret
	.cfi_endproc
.LFE41:
	.size	console_clear, .-console_clear
	.globl	console_init
	.type	console_init, @function
console_init:
.LFB42:
	.loc 1 375 21
	.cfi_startproc
	push	ebp
	.cfi_def_cfa_offset 8
	.cfi_offset 5, -8
	mov	ebp, esp
	.cfi_def_cfa_register 5
	sub	esp, 8
	.loc 1 375 61
	call	_ZN12_GLOBAL__N_19console_t11getInstanceEv
	sub	esp, 12
	push	eax
	call	_ZN12_GLOBAL__N_19console_t12console_initEv
	add	esp, 16
	.loc 1 375 65
	nop
	leave
	.cfi_restore 5
	.cfi_def_cfa 4, 4
	ret
	.cfi_endproc
.LFE42:
	.size	console_init, .-console_init
	.globl	console_write
	.type	console_write, @function
console_write:
.LFB43:
	.loc 1 376 42
	.cfi_startproc
	push	ebp
	.cfi_def_cfa_offset 8
	.cfi_offset 5, -8
	mov	ebp, esp
	.cfi_def_cfa_register 5
	sub	esp, 8
	.loc 1 376 83
	call	_ZN12_GLOBAL__N_19console_t11getInstanceEv
	sub	esp, 4
	push	DWORD PTR [ebp+12]
	push	DWORD PTR [ebp+8]
	push	eax
	call	_ZN12_GLOBAL__N_19console_t13console_writeEPcj
	add	esp, 16
	.loc 1 376 97
	nop
	leave
	.cfi_restore 5
	.cfi_def_cfa 4, 4
	ret
	.cfi_endproc
.LFE43:
	.size	console_write, .-console_write
	.globl	set_style
	.type	set_style, @function
set_style:
.LFB44:
	.loc 1 377 25
	.cfi_startproc
	push	ebp
	.cfi_def_cfa_offset 8
	.cfi_offset 5, -8
	mov	ebp, esp
	.cfi_def_cfa_register 5
	.loc 1 377 62
	call	_ZN12_GLOBAL__N_19console_t11getInstanceEv
	push	DWORD PTR [ebp+8]
	push	eax
	call	_ZN12_GLOBAL__N_19console_t9set_styleEj
	add	esp, 8
	.loc 1 377 69
	nop
	leave
	.cfi_restore 5
	.cfi_def_cfa 4, 4
	ret
	.cfi_endproc
.LFE44:
	.size	set_style, .-set_style
	.globl	get_style
	.type	get_style, @function
get_style:
.LFB45:
	.loc 1 378 17
	.cfi_startproc
	push	ebp
	.cfi_def_cfa_offset 8
	.cfi_offset 5, -8
	mov	ebp, esp
	.cfi_def_cfa_register 5
	.loc 1 378 61
	call	_ZN12_GLOBAL__N_19console_t11getInstanceEv
	push	eax
	call	_ZN12_GLOBAL__N_19console_t9get_styleEv
	add	esp, 4
	.loc 1 378 65
	leave
	.cfi_restore 5
	.cfi_def_cfa 4, 4
	ret
	.cfi_endproc
.LFE45:
	.size	get_style, .-get_style
	.globl	recover_style
	.type	recover_style, @function
recover_style:
.LFB46:
	.loc 1 379 22
	.cfi_startproc
	push	ebp
	.cfi_def_cfa_offset 8
	.cfi_offset 5, -8
	mov	ebp, esp
	.cfi_def_cfa_register 5
	.loc 1 379 63
	call	_ZN12_GLOBAL__N_19console_t11getInstanceEv
	push	eax
	call	_ZN12_GLOBAL__N_19console_t13recover_styleEv
	add	esp, 4
	.loc 1 379 67
	nop
	leave
	.cfi_restore 5
	.cfi_def_cfa 4, 4
	ret
	.cfi_endproc
.LFE46:
	.size	recover_style, .-recover_style
	.globl	console_putchar
	.type	console_putchar, @function
console_putchar:
.LFB47:
	.loc 1 380 31
	.cfi_startproc
	push	ebp
	.cfi_def_cfa_offset 8
	.cfi_offset 5, -8
	mov	ebp, esp
	.cfi_def_cfa_register 5
	sub	esp, 24
	mov	eax, DWORD PTR [ebp+8]
	mov	BYTE PTR [ebp-12], al
	.loc 1 380 74
	call	_ZN12_GLOBAL__N_19console_t11getInstanceEv
	movsx	edx, BYTE PTR [ebp-12]
	sub	esp, 8
	push	edx
	push	eax
	call	_ZN12_GLOBAL__N_19console_t15console_putcharEc
	add	esp, 16
	.loc 1 380 80
	nop
	leave
	.cfi_restore 5
	.cfi_def_cfa 4, 4
	ret
	.cfi_endproc
.LFE47:
	.size	console_putchar, .-console_putchar
.Letext0:
	.file 2 "/home/dever/OSdevelop/workspace/include/Gowinux/types.h"
	.file 3 "/home/dever/OSdevelop/workspace/include/Gowinux/io.h"
	.file 4 "/home/dever/OSdevelop/workspace/include/lib/memory.h"