	.file	"gdt.cpp"
	.intel_syntax noprefix
	.text
.Ltext0:
	.file 0 "/home/dever/OSdevelop/workspace" "/home/dever/OSdevelop/workspace/kernel/gdt.cpp"
	.section	.rodata
	.type	_ZN12_GLOBAL__N_1L8GDT_SIZEE, @object
	.size	_ZN12_GLOBAL__N_1L8GDT_SIZEE, 1
_ZN12_GLOBAL__N_1L8GDT_SIZEE:
	.byte	-128
	.type	_ZN12_GLOBAL__N_1L15KERNEL_CODE_IDXE, @object
	.size	_ZN12_GLOBAL__N_1L15KERNEL_CODE_IDXE, 1
_ZN12_GLOBAL__N_1L15KERNEL_CODE_IDXE:
	.byte	1
	.type	_ZN12_GLOBAL__N_1L15KERNEL_DATA_IDXE, @object
	.size	_ZN12_GLOBAL__N_1L15KERNEL_DATA_IDXE, 1
_ZN12_GLOBAL__N_1L15KERNEL_DATA_IDXE:
	.byte	2
	.type	_ZN12_GLOBAL__N_1L14KERNEL_TSS_IDXE, @object
	.size	_ZN12_GLOBAL__N_1L14KERNEL_TSS_IDXE, 1
_ZN12_GLOBAL__N_1L14KERNEL_TSS_IDXE:
	.byte	3
	.type	_ZN12_GLOBAL__N_1L13USER_CODE_IDXE, @object
	.size	_ZN12_GLOBAL__N_1L13USER_CODE_IDXE, 1
_ZN12_GLOBAL__N_1L13USER_CODE_IDXE:
	.byte	4
	.type	_ZN12_GLOBAL__N_1L13USER_DATA_IDXE, @object
	.size	_ZN12_GLOBAL__N_1L13USER_DATA_IDXE, 1
_ZN12_GLOBAL__N_1L13USER_DATA_IDXE:
	.byte	5
	.type	_ZN12_GLOBAL__N_1L20KERNEL_CODE_SELECTORE, @object
	.size	_ZN12_GLOBAL__N_1L20KERNEL_CODE_SELECTORE, 1
_ZN12_GLOBAL__N_1L20KERNEL_CODE_SELECTORE:
	.byte	8
	.type	_ZN12_GLOBAL__N_1L20KERNEL_DATA_SELECTORE, @object
	.size	_ZN12_GLOBAL__N_1L20KERNEL_DATA_SELECTORE, 1
_ZN12_GLOBAL__N_1L20KERNEL_DATA_SELECTORE:
	.byte	16
	.type	_ZN12_GLOBAL__N_1L19KERNEL_TSS_SELECTORE, @object
	.size	_ZN12_GLOBAL__N_1L19KERNEL_TSS_SELECTORE, 1
_ZN12_GLOBAL__N_1L19KERNEL_TSS_SELECTORE:
	.byte	24
	.type	_ZN12_GLOBAL__N_1L18USER_CODE_SELECTORE, @object
	.size	_ZN12_GLOBAL__N_1L18USER_CODE_SELECTORE, 1
_ZN12_GLOBAL__N_1L18USER_CODE_SELECTORE:
	.byte	35
	.type	_ZN12_GLOBAL__N_1L18USER_DATA_SELECTORE, @object
	.size	_ZN12_GLOBAL__N_1L18USER_DATA_SELECTORE, 1
_ZN12_GLOBAL__N_1L18USER_DATA_SELECTORE:
	.byte	43
	.local	_ZN12_GLOBAL__N_1L3gdtE
	.comm	_ZN12_GLOBAL__N_1L3gdtE,1138,32
	.align 4
.LC0:
	.string	"void {anonymous}::GlogalDescriptorTable::descriptor_init({anonymous}::descriptor_t*, u32, u32)"
	.align 4
.LC1:
	.string	"/home/dever/OSdevelop/workspace/kernel/gdt.cpp"
.LC2:
	.string	"init single Descriptor\n"
.LC3:
	.string	"DEBUG"
	.text
	.align 2
	.type	_ZN12_GLOBAL__N_121GlogalDescriptorTable15descriptor_initEPNS_12descriptor_tEjj, @function
_ZN12_GLOBAL__N_121GlogalDescriptorTable15descriptor_initEPNS_12descriptor_tEjj:
.LFB16:
	.file 1 "/home/dever/OSdevelop/workspace/kernel/gdt.cpp"
	.loc 1 104 1
	.cfi_startproc
	push	ebp
	.cfi_def_cfa_offset 8
	.cfi_offset 5, -8
	mov	ebp, esp
	.cfi_def_cfa_register 5
	push	ebx
	sub	esp, 4
	.cfi_offset 3, -12
	.loc 1 105 5
	sub	esp, 8
	push	105
	push	OFFSET FLAT:.LC0
	push	OFFSET FLAT:.LC1
	push	OFFSET FLAT:.LC1
	push	OFFSET FLAT:.LC2
	push	OFFSET FLAT:.LC3
	call	_normal_log
	add	esp, 32
	.loc 1 106 27
	mov	eax, DWORD PTR [ebp+16]
	and	eax, 16777215
	mov	edx, eax
	.loc 1 106 20
	mov	eax, DWORD PTR [ebp+12]
	movzx	ebx, dl
	movzx	ecx, BYTE PTR [eax+2]
	and	ecx, 0
	or	ecx, ebx
	mov	BYTE PTR [eax+2], cl
	mov	ecx, edx
	shr	ecx, 8
	movzx	ebx, cl
	movzx	ecx, BYTE PTR [eax+3]
	and	ecx, 0
	or	ecx, ebx
	mov	BYTE PTR [eax+3], cl
	shr	edx, 16
	movzx	ecx, dl
	movzx	edx, BYTE PTR [eax+4]
	and	edx, 0
	or	edx, ecx
	mov	BYTE PTR [eax+4], dl
	.loc 1 107 29
	mov	eax, DWORD PTR [ebp+16]
	shr	eax, 24
	.loc 1 107 21
	mov	edx, eax
	mov	eax, DWORD PTR [ebp+12]
	mov	BYTE PTR [eax+7], dl
	.loc 1 108 21
	mov	eax, DWORD PTR [ebp+20]
	mov	edx, eax
	mov	eax, DWORD PTR [ebp+12]
	mov	WORD PTR [eax], dx
	.loc 1 109 31
	mov	eax, DWORD PTR [ebp+20]
	shr	eax, 16
	.loc 1 109 22
	and	eax, 15
	mov	edx, DWORD PTR [ebp+12]
	and	eax, 15
	mov	ecx, eax
	movzx	eax, BYTE PTR [edx+6]
	and	eax, -16
	or	eax, ecx
	mov	BYTE PTR [edx+6], al
	.loc 1 110 1
	nop
	mov	ebx, DWORD PTR [ebp-4]
	leave
	.cfi_restore 5
	.cfi_restore 3
	.cfi_def_cfa 4, 4
	ret
	.cfi_endproc
.LFE16:
	.size	_ZN12_GLOBAL__N_121GlogalDescriptorTable15descriptor_initEPNS_12descriptor_tEjj, .-_ZN12_GLOBAL__N_121GlogalDescriptorTable15descriptor_initEPNS_12descriptor_tEjj
	.section	.rodata
	.align 4
.LC4:
	.string	"void {anonymous}::GlogalDescriptorTable::gdt_init()"
	.align 4
.LC5:
	.string	"init Glogal Descriptor Table...\n"
	.text
	.align 2
	.type	_ZN12_GLOBAL__N_121GlogalDescriptorTable8gdt_initEv, @function
_ZN12_GLOBAL__N_121GlogalDescriptorTable8gdt_initEv:
.LFB17:
	.loc 1 114 1
	.cfi_startproc
	push	ebp
	.cfi_def_cfa_offset 8
	.cfi_offset 5, -8
	mov	ebp, esp
	.cfi_def_cfa_register 5
	sub	esp, 24
	.loc 1 115 5
	sub	esp, 8
	push	115
	push	OFFSET FLAT:.LC4
	push	OFFSET FLAT:.LC1
	push	OFFSET FLAT:.LC1
	push	OFFSET FLAT:.LC5
	push	OFFSET FLAT:.LC3
	call	_normal_log
	add	esp, 32
	.loc 1 116 18
	mov	eax, DWORD PTR [ebp+8]
	.loc 1 116 11
	sub	esp, 4
	push	1024
	push	0
	push	eax
	call	memset
	add	esp, 16
	.loc 1 119 18
	mov	eax, DWORD PTR [ebp+8]
	.loc 1 119 10
	add	eax, 8
	mov	DWORD PTR [ebp-12], eax
	.loc 1 120 20
	push	1048575
	push	0
	push	DWORD PTR [ebp-12]
	push	DWORD PTR [ebp+8]
	call	_ZN12_GLOBAL__N_121GlogalDescriptorTable15descriptor_initEPNS_12descriptor_tEjj
	add	esp, 16
	.loc 1 121 19
	mov	eax, DWORD PTR [ebp-12]
	movzx	edx, BYTE PTR [eax+5]
	or	edx, 16
	mov	BYTE PTR [eax+5], dl
	.loc 1 122 23
	mov	eax, DWORD PTR [ebp-12]
	movzx	edx, BYTE PTR [eax+6]
	or	edx, -128
	mov	BYTE PTR [eax+6], dl
	.loc 1 123 15
	mov	eax, DWORD PTR [ebp-12]
	movzx	edx, BYTE PTR [eax+6]
	or	edx, 64
	mov	BYTE PTR [eax+6], dl
	.loc 1 124 21
	mov	eax, DWORD PTR [ebp-12]
	movzx	edx, BYTE PTR [eax+6]
	and	edx, -33
	mov	BYTE PTR [eax+6], dl
	.loc 1 125 19
	mov	eax, DWORD PTR [ebp-12]
	movzx	edx, BYTE PTR [eax+5]
	or	edx, -128
	mov	BYTE PTR [eax+5], dl
	.loc 1 126 15
	mov	eax, DWORD PTR [ebp-12]
	movzx	edx, BYTE PTR [eax+5]
	and	edx, -97
	mov	BYTE PTR [eax+5], dl
	.loc 1 127 16
	mov	eax, DWORD PTR [ebp-12]
	movzx	edx, BYTE PTR [eax+5]
	and	edx, -16
	or	edx, 10
	mov	BYTE PTR [eax+5], dl
	.loc 1 129 18
	mov	eax, DWORD PTR [ebp+8]
	.loc 1 129 10
	add	eax, 16
	mov	DWORD PTR [ebp-12], eax
	.loc 1 130 20
	push	1048575
	push	0
	push	DWORD PTR [ebp-12]
	push	DWORD PTR [ebp+8]
	call	_ZN12_GLOBAL__N_121GlogalDescriptorTable15descriptor_initEPNS_12descriptor_tEjj
	add	esp, 16
	.loc 1 131 19
	mov	eax, DWORD PTR [ebp-12]
	movzx	edx, BYTE PTR [eax+5]
	or	edx, 16
	mov	BYTE PTR [eax+5], dl
	.loc 1 132 23
	mov	eax, DWORD PTR [ebp-12]
	movzx	edx, BYTE PTR [eax+6]
	or	edx, -128
	mov	BYTE PTR [eax+6], dl
	.loc 1 133 15
	mov	eax, DWORD PTR [ebp-12]
	movzx	edx, BYTE PTR [eax+6]
	or	edx, 64
	mov	BYTE PTR [eax+6], dl
	.loc 1 134 21
	mov	eax, DWORD PTR [ebp-12]
	movzx	edx, BYTE PTR [eax+6]
	and	edx, -33
	mov	BYTE PTR [eax+6], dl
	.loc 1 135 19
	mov	eax, DWORD PTR [ebp-12]
	movzx	edx, BYTE PTR [eax+5]
	or	edx, -128
	mov	BYTE PTR [eax+5], dl
	.loc 1 136 15
	mov	eax, DWORD PTR [ebp-12]
	movzx	edx, BYTE PTR [eax+5]
	and	edx, -97
	mov	BYTE PTR [eax+5], dl
	.loc 1 137 16
	mov	eax, DWORD PTR [ebp-12]
	movzx	edx, BYTE PTR [eax+5]
	and	edx, -16
	or	edx, 2
	mov	BYTE PTR [eax+5], dl
	.loc 1 139 18
	mov	eax, DWORD PTR [ebp+8]
	.loc 1 139 10
	add	eax, 32
	mov	DWORD PTR [ebp-12], eax
	.loc 1 140 20
	push	1048575
	push	0
	push	DWORD PTR [ebp-12]
	push	DWORD PTR [ebp+8]
	call	_ZN12_GLOBAL__N_121GlogalDescriptorTable15descriptor_initEPNS_12descriptor_tEjj
	add	esp, 16
	.loc 1 141 19
	mov	eax, DWORD PTR [ebp-12]
	movzx	edx, BYTE PTR [eax+5]
	or	edx, 16
	mov	BYTE PTR [eax+5], dl
	.loc 1 142 23
	mov	eax, DWORD PTR [ebp-12]
	movzx	edx, BYTE PTR [eax+6]
	or	edx, -128
	mov	BYTE PTR [eax+6], dl
	.loc 1 143 15
	mov	eax, DWORD PTR [ebp-12]
	movzx	edx, BYTE PTR [eax+6]
	or	edx, 64
	mov	BYTE PTR [eax+6], dl
	.loc 1 144 21
	mov	eax, DWORD PTR [ebp-12]
	movzx	edx, BYTE PTR [eax+6]
	and	edx, -33
	mov	BYTE PTR [eax+6], dl
	.loc 1 145 19
	mov	eax, DWORD PTR [ebp-12]
	movzx	edx, BYTE PTR [eax+5]
	or	edx, -128
	mov	BYTE PTR [eax+5], dl
	.loc 1 146 15
	mov	eax, DWORD PTR [ebp-12]
	movzx	edx, BYTE PTR [eax+5]
	or	edx, 96
	mov	BYTE PTR [eax+5], dl
	.loc 1 147 16
	mov	eax, DWORD PTR [ebp-12]
	movzx	edx, BYTE PTR [eax+5]
	and	edx, -16
	or	edx, 10
	mov	BYTE PTR [eax+5], dl
	.loc 1 149 18
	mov	eax, DWORD PTR [ebp+8]
	.loc 1 149 10
	add	eax, 40
	mov	DWORD PTR [ebp-12], eax
	.loc 1 150 20
	push	1048575
	push	0
	push	DWORD PTR [ebp-12]
	push	DWORD PTR [ebp+8]
	call	_ZN12_GLOBAL__N_121GlogalDescriptorTable15descriptor_initEPNS_12descriptor_tEjj
	add	esp, 16
	.loc 1 151 19
	mov	eax, DWORD PTR [ebp-12]
	movzx	edx, BYTE PTR [eax+5]
	or	edx, 16
	mov	BYTE PTR [eax+5], dl
	.loc 1 152 23
	mov	eax, DWORD PTR [ebp-12]
	movzx	edx, BYTE PTR [eax+6]
	or	edx, -128
	mov	BYTE PTR [eax+6], dl
	.loc 1 153 15
	mov	eax, DWORD PTR [ebp-12]
	movzx	edx, BYTE PTR [eax+6]
	or	edx, 64
	mov	BYTE PTR [eax+6], dl
	.loc 1 154 21
	mov	eax, DWORD PTR [ebp-12]
	movzx	edx, BYTE PTR [eax+6]
	and	edx, -33
	mov	BYTE PTR [eax+6], dl
	.loc 1 155 19
	mov	eax, DWORD PTR [ebp-12]
	movzx	edx, BYTE PTR [eax+5]
	or	edx, -128
	mov	BYTE PTR [eax+5], dl
	.loc 1 156 15
	mov	eax, DWORD PTR [ebp-12]
	movzx	edx, BYTE PTR [eax+5]
	or	edx, 96
	mov	BYTE PTR [eax+5], dl
	.loc 1 157 16
	mov	eax, DWORD PTR [ebp-12]
	movzx	edx, BYTE PTR [eax+5]
	and	edx, -16
	or	edx, 2
	mov	BYTE PTR [eax+5], dl
	.loc 1 159 28
	mov	eax, DWORD PTR [ebp+8]
	.loc 1 159 20
	mov	edx, eax
	mov	eax, DWORD PTR [ebp+8]
	mov	DWORD PTR [eax+1026], edx
	.loc 1 160 21
	mov	eax, DWORD PTR [ebp+8]
	mov	WORD PTR [eax+1024], 1023
	.loc 1 161 1
	nop
	leave
	.cfi_restore 5
	.cfi_def_cfa 4, 4
	ret
	.cfi_endproc
.LFE17:
	.size	_ZN12_GLOBAL__N_121GlogalDescriptorTable8gdt_initEv, .-_ZN12_GLOBAL__N_121GlogalDescriptorTable8gdt_initEv
	.align 2
	.type	_ZN12_GLOBAL__N_121GlogalDescriptorTable8tss_initEv, @function
_ZN12_GLOBAL__N_121GlogalDescriptorTable8tss_initEv:
.LFB18:
	.loc 1 164 1
	.cfi_startproc
	push	ebp
	.cfi_def_cfa_offset 8
	.cfi_offset 5, -8
	mov	ebp, esp
	.cfi_def_cfa_register 5
	sub	esp, 24
	.loc 1 165 12
	mov	eax, DWORD PTR [ebp+8]
	add	eax, 1030
	.loc 1 165 11
	sub	esp, 4
	push	108
	push	0
	push	eax
	call	memset
	add	esp, 16
	.loc 1 167 21
	mov	eax, DWORD PTR [ebp+8]
	mov	DWORD PTR [eax+1038], 16
	.loc 1 168 24
	mov	eax, DWORD PTR [ebp+8]
	mov	WORD PTR [eax+1132], 108
	.loc 1 170 32
	mov	eax, DWORD PTR [ebp+8]
	.loc 1 170 19
	add	eax, 24
	mov	DWORD PTR [ebp-12], eax
	.loc 1 171 33
	mov	eax, DWORD PTR [ebp+8]
	add	eax, 1030
	.loc 1 171 20
	push	107
	push	eax
	push	DWORD PTR [ebp-12]
	push	DWORD PTR [ebp+8]
	call	_ZN12_GLOBAL__N_121GlogalDescriptorTable15descriptor_initEPNS_12descriptor_tEjj
	add	esp, 16
	.loc 1 172 19
	mov	eax, DWORD PTR [ebp-12]
	movzx	edx, BYTE PTR [eax+5]
	and	edx, -17
	mov	BYTE PTR [eax+5], dl
	.loc 1 173 23
	mov	eax, DWORD PTR [ebp-12]
	movzx	edx, BYTE PTR [eax+6]
	and	edx, 127
	mov	BYTE PTR [eax+6], dl
	.loc 1 174 15
	mov	eax, DWORD PTR [ebp-12]
	movzx	edx, BYTE PTR [eax+6]
	and	edx, -65
	mov	BYTE PTR [eax+6], dl
	.loc 1 175 21
	mov	eax, DWORD PTR [ebp-12]
	movzx	edx, BYTE PTR [eax+6]
	and	edx, -33
	mov	BYTE PTR [eax+6], dl
	.loc 1 176 19
	mov	eax, DWORD PTR [ebp-12]
	movzx	edx, BYTE PTR [eax+5]
	or	edx, -128
	mov	BYTE PTR [eax+5], dl
	.loc 1 177 15
	mov	eax, DWORD PTR [ebp-12]
	movzx	edx, BYTE PTR [eax+5]
	and	edx, -97
	mov	BYTE PTR [eax+5], dl
	.loc 1 178 16
	mov	eax, DWORD PTR [ebp-12]
	movzx	edx, BYTE PTR [eax+5]
	and	edx, -16
	or	edx, 9
	mov	BYTE PTR [eax+5], dl
	.loc 1 180 5
	mov	eax, 24
/APP
/  180 "/home/dever/OSdevelop/workspace/kernel/gdt.cpp" 1
	ltr %ax

/  0 "" 2
	.loc 1 182 1
/NO_APP
	nop
	leave
	.cfi_restore 5
	.cfi_def_cfa 4, 4
	ret
	.cfi_endproc
.LFE18:
	.size	_ZN12_GLOBAL__N_121GlogalDescriptorTable8tss_initEv, .-_ZN12_GLOBAL__N_121GlogalDescriptorTable8tss_initEv
	.globl	gdt_init
	.type	gdt_init, @function
gdt_init:
.LFB19:
	.loc 1 186 17
	.cfi_startproc
	push	ebp
	.cfi_def_cfa_offset 8
	.cfi_offset 5, -8
	mov	ebp, esp
	.cfi_def_cfa_register 5
	sub	esp, 8
	.loc 1 186 31
	sub	esp, 12
	push	OFFSET FLAT:_ZN12_GLOBAL__N_1L3gdtE
	call	_ZN12_GLOBAL__N_121GlogalDescriptorTable8gdt_initEv
	add	esp, 16
	.loc 1 186 35
	nop
	leave
	.cfi_restore 5
	.cfi_def_cfa 4, 4
	ret
	.cfi_endproc
.LFE19:
	.size	gdt_init, .-gdt_init
	.globl	tss_init
	.type	tss_init, @function
tss_init:
.LFB20:
	.loc 1 187 17
	.cfi_startproc
	push	ebp
	.cfi_def_cfa_offset 8
	.cfi_offset 5, -8
	mov	ebp, esp
	.cfi_def_cfa_register 5
	sub	esp, 8
	.loc 1 187 31
	sub	esp, 12
	push	OFFSET FLAT:_ZN12_GLOBAL__N_1L3gdtE
	call	_ZN12_GLOBAL__N_121GlogalDescriptorTable8tss_initEv
	add	esp, 16
	.loc 1 187 35
	nop
	leave
	.cfi_restore 5
	.cfi_def_cfa 4, 4
	ret
	.cfi_endproc
.LFE20:
	.size	tss_init, .-tss_init
.Letext0:
	.file 2 "/home/dever/OSdevelop/workspace/include/Gowinux/types.h"
	.file 3 "/home/dever/OSdevelop/workspace/include/lib/memory.h"
	.file 4 "/home/dever/OSdevelop/workspace/include/lib/log.h"