	.file	"main.c"
	.intel_syntax noprefix
	.text
.Ltext0:
	.cfi_sections	.debug_frame
	.file 0 "/home/dever/OSdevelop/workspace" "/home/dever/OSdevelop/workspace/kernel/main.c"
	.data
	.align 4
	.type	message, @object
	.size	message, 18
message:
	.string	"Hello,\t\013Gowinux!\n"
	.local	buf
	.comm	buf,1024,32
	.align 4
	.type	cnta, @object
	.size	cnta, 4
cnta:
	.long	1
	.align 4
	.type	cntb, @object
	.size	cntb, 4
cntb:
	.long	1
	.section	.rodata
.LC0:
	.string	"A"
	.text
	.globl	task_a
	.type	task_a, @function
task_a:
.LFB0:
	.file 1 "/home/dever/OSdevelop/workspace/kernel/main.c"
	.loc 1 21 14
	.cfi_startproc
	push	ebp
	.cfi_def_cfa_offset 8
	.cfi_offset 5, -8
	mov	ebp, esp
	.cfi_def_cfa_register 5
	sub	esp, 8
	.loc 1 23 5
	sub	esp, 12
	push	OFFSET FLAT:.LC0
	call	printk
	add	esp, 16
	.loc 1 24 13
	mov	eax, DWORD PTR cnta
	lea	edx, [eax-1]
	mov	DWORD PTR cnta, edx
	.loc 1 24 8
	test	eax, eax
	je	.L3
	.loc 1 26 9
	call	task_hang
.L3:
	.loc 1 29 1
	nop
	leave
	.cfi_restore 5
	.cfi_def_cfa 4, 4
	ret
	.cfi_endproc
.LFE0:
	.size	task_a, .-task_a
	.section	.rodata
.LC1:
	.string	"B"
	.text
	.globl	task_b
	.type	task_b, @function
task_b:
.LFB1:
	.loc 1 31 14
	.cfi_startproc
	push	ebp
	.cfi_def_cfa_offset 8
	.cfi_offset 5, -8
	mov	ebp, esp
	.cfi_def_cfa_register 5
	sub	esp, 8
	.loc 1 33 5
	sub	esp, 12
	push	OFFSET FLAT:.LC1
	call	printk
	add	esp, 16
	.loc 1 34 13
	mov	eax, DWORD PTR cntb
	lea	edx, [eax-1]
	mov	DWORD PTR cntb, edx
	.loc 1 34 8
	test	eax, eax
	je	.L6
	.loc 1 36 9
	call	task_hang
.L6:
	.loc 1 38 1
	nop
	leave
	.cfi_restore 5
	.cfi_def_cfa 4, 4
	ret
	.cfi_endproc
.LFE1:
	.size	task_b, .-task_b
	.section	.rodata
.LC2:
	.string	"I'm back!\n"
	.text
	.globl	kernel_init
	.type	kernel_init, @function
kernel_init:
.LFB2:
	.loc 1 41 1
	.cfi_startproc
	push	ebp
	.cfi_def_cfa_offset 8
	.cfi_offset 5, -8
	mov	ebp, esp
	.cfi_def_cfa_register 5
	sub	esp, 24
	.loc 1 42 12
	mov	DWORD PTR [ebp-12], 0
	.loc 1 43 5
	call	console_init
	.loc 1 44 5
	call	gdt_init
	.loc 1 45 5
	call	task_init
	.loc 1 46 5
	sub	esp, 12
	push	7
	call	set_style
	add	esp, 16
	.loc 1 52 19
	mov	ecx, OFFSET FLAT:task_a
	mov	edx, OFFSET FLAT:.LC0
	lea	eax, [ebp-16]
	push	0
	push	0
	push	0
	push	0
	push	ecx
	push	273
	push	edx
	push	eax
	call	task_create
	add	esp, 28
	.loc 1 53 19
	mov	ecx, OFFSET FLAT:task_b
	mov	edx, OFFSET FLAT:.LC1
	lea	eax, [ebp-20]
	push	0
	push	0
	push	0
	push	0
	push	ecx
	push	273
	push	edx
	push	eax
	call	task_create
	add	esp, 28
	.loc 1 54 5
	sub	esp, 12
	lea	eax, [ebp-16]
	push	eax
	call	task_start
	add	esp, 16
	.loc 1 55 5
	sub	esp, 12
	lea	eax, [ebp-16]
	push	eax
	call	task_end
	add	esp, 16
	.loc 1 56 5
	sub	esp, 12
	lea	eax, [ebp-20]
	push	eax
	call	task_end
	add	esp, 16
	.loc 1 57 5
	sub	esp, 12
	push	OFFSET FLAT:.LC2
	call	printk
	add	esp, 16
	.loc 1 58 5
	nop
	.loc 1 59 1
	leave
	.cfi_restore 5
	.cfi_def_cfa 4, 4
	ret
	.cfi_endproc
.LFE2:
	.size	kernel_init, .-kernel_init
.Letext0:
	.file 2 "/home/dever/OSdevelop/workspace/include/lib/task.h"
	.file 3 "/home/dever/OSdevelop/workspace/include/Gowinux/types.h"
	.file 4 "/home/dever/OSdevelop/workspace/include/Gowinux/console.h"
	.file 5 "/home/dever/OSdevelop/workspace/include/Gowinux/gdt.h"
	.file 6 "/home/dever/OSdevelop/workspace/include/lib/printk.h"
	.file 7 "/home/dever/OSdevelop/workspace/include/lib/colors.h"